
bomb:     file format elf32-i386


Disassembly of section .init:

080486c8 <_init>:
 80486c8:	53                   	push   %ebx
 80486c9:	83 ec 08             	sub    $0x8,%esp
 80486cc:	e8 00 00 00 00       	call   80486d1 <_init+0x9>
 80486d1:	5b                   	pop    %ebx
 80486d2:	81 c3 0f 2a 00 00    	add    $0x2a0f,%ebx
 80486d8:	8b 83 fc ff ff ff    	mov    -0x4(%ebx),%eax
 80486de:	85 c0                	test   %eax,%eax
 80486e0:	74 05                	je     80486e7 <_init+0x1f>
 80486e2:	e8 61 00 00 00       	call   8048748 <__gmon_start__@plt>
 80486e7:	e8 84 02 00 00       	call   8048970 <frame_dummy>
 80486ec:	e8 8f 19 00 00       	call   804a080 <__do_global_ctors_aux>
 80486f1:	83 c4 08             	add    $0x8,%esp
 80486f4:	5b                   	pop    %ebx
 80486f5:	c3                   	ret    

Disassembly of section .plt:

080486f8 <__errno_location@plt-0x10>:
 80486f8:	ff 35 e4 b0 04 08    	pushl  0x804b0e4
 80486fe:	ff 25 e8 b0 04 08    	jmp    *0x804b0e8
 8048704:	00 00                	add    %al,(%eax)
	...

08048708 <__errno_location@plt>:
 8048708:	ff 25 ec b0 04 08    	jmp    *0x804b0ec
 804870e:	68 00 00 00 00       	push   $0x0
 8048713:	e9 e0 ff ff ff       	jmp    80486f8 <_init+0x30>

08048718 <sprintf@plt>:
 8048718:	ff 25 f0 b0 04 08    	jmp    *0x804b0f0
 804871e:	68 08 00 00 00       	push   $0x8
 8048723:	e9 d0 ff ff ff       	jmp    80486f8 <_init+0x30>

08048728 <connect@plt>:
 8048728:	ff 25 f4 b0 04 08    	jmp    *0x804b0f4
 804872e:	68 10 00 00 00       	push   $0x10
 8048733:	e9 c0 ff ff ff       	jmp    80486f8 <_init+0x30>

08048738 <signal@plt>:
 8048738:	ff 25 f8 b0 04 08    	jmp    *0x804b0f8
 804873e:	68 18 00 00 00       	push   $0x18
 8048743:	e9 b0 ff ff ff       	jmp    80486f8 <_init+0x30>

08048748 <__gmon_start__@plt>:
 8048748:	ff 25 fc b0 04 08    	jmp    *0x804b0fc
 804874e:	68 20 00 00 00       	push   $0x20
 8048753:	e9 a0 ff ff ff       	jmp    80486f8 <_init+0x30>

08048758 <__isoc99_sscanf@plt>:
 8048758:	ff 25 00 b1 04 08    	jmp    *0x804b100
 804875e:	68 28 00 00 00       	push   $0x28
 8048763:	e9 90 ff ff ff       	jmp    80486f8 <_init+0x30>

08048768 <getenv@plt>:
 8048768:	ff 25 04 b1 04 08    	jmp    *0x804b104
 804876e:	68 30 00 00 00       	push   $0x30
 8048773:	e9 80 ff ff ff       	jmp    80486f8 <_init+0x30>

08048778 <write@plt>:
 8048778:	ff 25 08 b1 04 08    	jmp    *0x804b108
 804877e:	68 38 00 00 00       	push   $0x38
 8048783:	e9 70 ff ff ff       	jmp    80486f8 <_init+0x30>

08048788 <fgets@plt>:
 8048788:	ff 25 0c b1 04 08    	jmp    *0x804b10c
 804878e:	68 40 00 00 00       	push   $0x40
 8048793:	e9 60 ff ff ff       	jmp    80486f8 <_init+0x30>

08048798 <__libc_start_main@plt>:
 8048798:	ff 25 10 b1 04 08    	jmp    *0x804b110
 804879e:	68 48 00 00 00       	push   $0x48
 80487a3:	e9 50 ff ff ff       	jmp    80486f8 <_init+0x30>

080487a8 <read@plt>:
 80487a8:	ff 25 14 b1 04 08    	jmp    *0x804b114
 80487ae:	68 50 00 00 00       	push   $0x50
 80487b3:	e9 40 ff ff ff       	jmp    80486f8 <_init+0x30>

080487b8 <strtol@plt>:
 80487b8:	ff 25 18 b1 04 08    	jmp    *0x804b118
 80487be:	68 58 00 00 00       	push   $0x58
 80487c3:	e9 30 ff ff ff       	jmp    80486f8 <_init+0x30>

080487c8 <fflush@plt>:
 80487c8:	ff 25 1c b1 04 08    	jmp    *0x804b11c
 80487ce:	68 60 00 00 00       	push   $0x60
 80487d3:	e9 20 ff ff ff       	jmp    80486f8 <_init+0x30>

080487d8 <socket@plt>:
 80487d8:	ff 25 20 b1 04 08    	jmp    *0x804b120
 80487de:	68 68 00 00 00       	push   $0x68
 80487e3:	e9 10 ff ff ff       	jmp    80486f8 <_init+0x30>

080487e8 <__ctype_b_loc@plt>:
 80487e8:	ff 25 24 b1 04 08    	jmp    *0x804b124
 80487ee:	68 70 00 00 00       	push   $0x70
 80487f3:	e9 00 ff ff ff       	jmp    80486f8 <_init+0x30>

080487f8 <bcopy@plt>:
 80487f8:	ff 25 28 b1 04 08    	jmp    *0x804b128
 80487fe:	68 78 00 00 00       	push   $0x78
 8048803:	e9 f0 fe ff ff       	jmp    80486f8 <_init+0x30>

08048808 <memcpy@plt>:
 8048808:	ff 25 2c b1 04 08    	jmp    *0x804b12c
 804880e:	68 80 00 00 00       	push   $0x80
 8048813:	e9 e0 fe ff ff       	jmp    80486f8 <_init+0x30>

08048818 <fopen@plt>:
 8048818:	ff 25 30 b1 04 08    	jmp    *0x804b130
 804881e:	68 88 00 00 00       	push   $0x88
 8048823:	e9 d0 fe ff ff       	jmp    80486f8 <_init+0x30>

08048828 <alarm@plt>:
 8048828:	ff 25 34 b1 04 08    	jmp    *0x804b134
 804882e:	68 90 00 00 00       	push   $0x90
 8048833:	e9 c0 fe ff ff       	jmp    80486f8 <_init+0x30>

08048838 <strcpy@plt>:
 8048838:	ff 25 38 b1 04 08    	jmp    *0x804b138
 804883e:	68 98 00 00 00       	push   $0x98
 8048843:	e9 b0 fe ff ff       	jmp    80486f8 <_init+0x30>

08048848 <printf@plt>:
 8048848:	ff 25 3c b1 04 08    	jmp    *0x804b13c
 804884e:	68 a0 00 00 00       	push   $0xa0
 8048853:	e9 a0 fe ff ff       	jmp    80486f8 <_init+0x30>

08048858 <strcasecmp@plt>:
 8048858:	ff 25 40 b1 04 08    	jmp    *0x804b140
 804885e:	68 a8 00 00 00       	push   $0xa8
 8048863:	e9 90 fe ff ff       	jmp    80486f8 <_init+0x30>

08048868 <close@plt>:
 8048868:	ff 25 44 b1 04 08    	jmp    *0x804b144
 804886e:	68 b0 00 00 00       	push   $0xb0
 8048873:	e9 80 fe ff ff       	jmp    80486f8 <_init+0x30>

08048878 <fprintf@plt>:
 8048878:	ff 25 48 b1 04 08    	jmp    *0x804b148
 804887e:	68 b8 00 00 00       	push   $0xb8
 8048883:	e9 70 fe ff ff       	jmp    80486f8 <_init+0x30>

08048888 <gethostname@plt>:
 8048888:	ff 25 4c b1 04 08    	jmp    *0x804b14c
 804888e:	68 c0 00 00 00       	push   $0xc0
 8048893:	e9 60 fe ff ff       	jmp    80486f8 <_init+0x30>

08048898 <sleep@plt>:
 8048898:	ff 25 50 b1 04 08    	jmp    *0x804b150
 804889e:	68 c8 00 00 00       	push   $0xc8
 80488a3:	e9 50 fe ff ff       	jmp    80486f8 <_init+0x30>

080488a8 <puts@plt>:
 80488a8:	ff 25 54 b1 04 08    	jmp    *0x804b154
 80488ae:	68 d0 00 00 00       	push   $0xd0
 80488b3:	e9 40 fe ff ff       	jmp    80486f8 <_init+0x30>

080488b8 <gethostbyname@plt>:
 80488b8:	ff 25 58 b1 04 08    	jmp    *0x804b158
 80488be:	68 d8 00 00 00       	push   $0xd8
 80488c3:	e9 30 fe ff ff       	jmp    80486f8 <_init+0x30>

080488c8 <exit@plt>:
 80488c8:	ff 25 5c b1 04 08    	jmp    *0x804b15c
 80488ce:	68 e0 00 00 00       	push   $0xe0
 80488d3:	e9 20 fe ff ff       	jmp    80486f8 <_init+0x30>

Disassembly of section .text:

080488e0 <_start>:
 80488e0:	31 ed                	xor    %ebp,%ebp
 80488e2:	5e                   	pop    %esi
 80488e3:	89 e1                	mov    %esp,%ecx
 80488e5:	83 e4 f0             	and    $0xfffffff0,%esp
 80488e8:	50                   	push   %eax
 80488e9:	54                   	push   %esp
 80488ea:	52                   	push   %edx
 80488eb:	68 70 a0 04 08       	push   $0x804a070
 80488f0:	68 00 a0 04 08       	push   $0x804a000
 80488f5:	51                   	push   %ecx
 80488f6:	56                   	push   %esi
 80488f7:	68 94 89 04 08       	push   $0x8048994
 80488fc:	e8 97 fe ff ff       	call   8048798 <__libc_start_main@plt>
 8048901:	f4                   	hlt    
 8048902:	90                   	nop
 8048903:	90                   	nop
 8048904:	90                   	nop
 8048905:	90                   	nop
 8048906:	90                   	nop
 8048907:	90                   	nop
 8048908:	90                   	nop
 8048909:	90                   	nop
 804890a:	90                   	nop
 804890b:	90                   	nop
 804890c:	90                   	nop
 804890d:	90                   	nop
 804890e:	90                   	nop
 804890f:	90                   	nop

08048910 <__do_global_dtors_aux>:
 8048910:	55                   	push   %ebp
 8048911:	89 e5                	mov    %esp,%ebp
 8048913:	53                   	push   %ebx
 8048914:	8d 64 24 fc          	lea    -0x4(%esp),%esp
 8048918:	80 3d c4 b8 04 08 00 	cmpb   $0x0,0x804b8c4
 804891f:	75 3e                	jne    804895f <__do_global_dtors_aux+0x4f>
 8048921:	bb 0c b0 04 08       	mov    $0x804b00c,%ebx
 8048926:	a1 c8 b8 04 08       	mov    0x804b8c8,%eax
 804892b:	81 eb 08 b0 04 08    	sub    $0x804b008,%ebx
 8048931:	c1 fb 02             	sar    $0x2,%ebx
 8048934:	83 eb 01             	sub    $0x1,%ebx
 8048937:	39 d8                	cmp    %ebx,%eax
 8048939:	73 1d                	jae    8048958 <__do_global_dtors_aux+0x48>
 804893b:	90                   	nop
 804893c:	8d 74 26 00          	lea    0x0(%esi,%eiz,1),%esi
 8048940:	8d 40 01             	lea    0x1(%eax),%eax
 8048943:	a3 c8 b8 04 08       	mov    %eax,0x804b8c8
 8048948:	ff 14 85 08 b0 04 08 	call   *0x804b008(,%eax,4)
 804894f:	a1 c8 b8 04 08       	mov    0x804b8c8,%eax
 8048954:	39 d8                	cmp    %ebx,%eax
 8048956:	72 e8                	jb     8048940 <__do_global_dtors_aux+0x30>
 8048958:	c6 05 c4 b8 04 08 01 	movb   $0x1,0x804b8c4
 804895f:	8d 64 24 04          	lea    0x4(%esp),%esp
 8048963:	5b                   	pop    %ebx
 8048964:	5d                   	pop    %ebp
 8048965:	c3                   	ret    
 8048966:	8d 76 00             	lea    0x0(%esi),%esi
 8048969:	8d bc 27 00 00 00 00 	lea    0x0(%edi,%eiz,1),%edi

08048970 <frame_dummy>:
 8048970:	55                   	push   %ebp
 8048971:	89 e5                	mov    %esp,%ebp
 8048973:	8d 64 24 e8          	lea    -0x18(%esp),%esp
 8048977:	a1 10 b0 04 08       	mov    0x804b010,%eax
 804897c:	85 c0                	test   %eax,%eax
 804897e:	74 12                	je     8048992 <frame_dummy+0x22>
 8048980:	b8 00 00 00 00       	mov    $0x0,%eax
 8048985:	85 c0                	test   %eax,%eax
 8048987:	74 09                	je     8048992 <frame_dummy+0x22>
 8048989:	c7 04 24 10 b0 04 08 	movl   $0x804b010,(%esp)
 8048990:	ff d0                	call   *%eax
 8048992:	c9                   	leave  
 8048993:	c3                   	ret    

08048994 <main>:
 8048994:	55                   	push   %ebp
 8048995:	89 e5                	mov    %esp,%ebp
 8048997:	53                   	push   %ebx
 8048998:	83 e4 f0             	and    $0xfffffff0,%esp
 804899b:	83 ec 10             	sub    $0x10,%esp
 804899e:	8b 45 08             	mov    0x8(%ebp),%eax
 80489a1:	8b 5d 0c             	mov    0xc(%ebp),%ebx
 80489a4:	83 f8 01             	cmp    $0x1,%eax
 80489a7:	75 0c                	jne    80489b5 <main+0x21>
 80489a9:	a1 a4 b8 04 08       	mov    0x804b8a4,%eax
 80489ae:	a3 d0 b8 04 08       	mov    %eax,0x804b8d0
 80489b3:	eb 64                	jmp    8048a19 <main+0x85>
 80489b5:	83 f8 02             	cmp    $0x2,%eax
 80489b8:	75 41                	jne    80489fb <main+0x67>
 80489ba:	c7 44 24 04 ec a0 04 	movl   $0x804a0ec,0x4(%esp)
 80489c1:	08 
 80489c2:	8b 43 04             	mov    0x4(%ebx),%eax
 80489c5:	89 04 24             	mov    %eax,(%esp)
 80489c8:	e8 4b fe ff ff       	call   8048818 <fopen@plt>
 80489cd:	a3 d0 b8 04 08       	mov    %eax,0x804b8d0
 80489d2:	85 c0                	test   %eax,%eax
 80489d4:	75 43                	jne    8048a19 <main+0x85>
 80489d6:	8b 43 04             	mov    0x4(%ebx),%eax
 80489d9:	89 44 24 08          	mov    %eax,0x8(%esp)
 80489dd:	8b 03                	mov    (%ebx),%eax
 80489df:	89 44 24 04          	mov    %eax,0x4(%esp)
 80489e3:	c7 04 24 ee a0 04 08 	movl   $0x804a0ee,(%esp)
 80489ea:	e8 59 fe ff ff       	call   8048848 <printf@plt>
 80489ef:	c7 04 24 08 00 00 00 	movl   $0x8,(%esp)
 80489f6:	e8 cd fe ff ff       	call   80488c8 <exit@plt>
 80489fb:	8b 03                	mov    (%ebx),%eax
 80489fd:	89 44 24 04          	mov    %eax,0x4(%esp)
 8048a01:	c7 04 24 0b a1 04 08 	movl   $0x804a10b,(%esp)
 8048a08:	e8 3b fe ff ff       	call   8048848 <printf@plt>
 8048a0d:	c7 04 24 08 00 00 00 	movl   $0x8,(%esp)
 8048a14:	e8 af fe ff ff       	call   80488c8 <exit@plt>
 8048a19:	e8 7d 05 00 00       	call   8048f9b <initialize_bomb>
 8048a1e:	c7 04 24 70 a1 04 08 	movl   $0x804a170,(%esp)
 8048a25:	e8 7e fe ff ff       	call   80488a8 <puts@plt>
 8048a2a:	c7 04 24 ac a1 04 08 	movl   $0x804a1ac,(%esp)
 8048a31:	e8 72 fe ff ff       	call   80488a8 <puts@plt>
 8048a36:	e8 ca 07 00 00       	call   8049205 <read_line>
 8048a3b:	89 04 24             	mov    %eax,(%esp)
 8048a3e:	e8 ad 00 00 00       	call   8048af0 <phase_1>
 8048a43:	e8 1b 09 00 00       	call   8049363 <phase_defused>
 8048a48:	c7 04 24 d8 a1 04 08 	movl   $0x804a1d8,(%esp)
 8048a4f:	e8 54 fe ff ff       	call   80488a8 <puts@plt>
 8048a54:	e8 ac 07 00 00       	call   8049205 <read_line>
 8048a59:	89 04 24             	mov    %eax,(%esp)
 8048a5c:	e8 b3 00 00 00       	call   8048b14 <phase_2>
 8048a61:	e8 fd 08 00 00       	call   8049363 <phase_defused>
 8048a66:	c7 04 24 25 a1 04 08 	movl   $0x804a125,(%esp)
 8048a6d:	e8 36 fe ff ff       	call   80488a8 <puts@plt>
 8048a72:	e8 8e 07 00 00       	call   8049205 <read_line>
 8048a77:	89 04 24             	mov    %eax,(%esp)
 8048a7a:	e8 e5 00 00 00       	call   8048b64 <phase_3>
 8048a7f:	e8 df 08 00 00       	call   8049363 <phase_defused>
 8048a84:	c7 04 24 43 a1 04 08 	movl   $0x804a143,(%esp)
 8048a8b:	e8 18 fe ff ff       	call   80488a8 <puts@plt>
 8048a90:	e8 70 07 00 00       	call   8049205 <read_line>
 8048a95:	89 04 24             	mov    %eax,(%esp)
 8048a98:	e8 b8 01 00 00       	call   8048c55 <phase_4>
 8048a9d:	e8 c1 08 00 00       	call   8049363 <phase_defused>
 8048aa2:	c7 04 24 04 a2 04 08 	movl   $0x804a204,(%esp)
 8048aa9:	e8 fa fd ff ff       	call   80488a8 <puts@plt>
 8048aae:	e8 52 07 00 00       	call   8049205 <read_line>
 8048ab3:	89 04 24             	mov    %eax,(%esp)
 8048ab6:	e8 fc 01 00 00       	call   8048cb7 <phase_5>
 8048abb:	e8 a3 08 00 00       	call   8049363 <phase_defused>
 8048ac0:	c7 04 24 52 a1 04 08 	movl   $0x804a152,(%esp)
 8048ac7:	e8 dc fd ff ff       	call   80488a8 <puts@plt>
 8048acc:	e8 34 07 00 00       	call   8049205 <read_line>
 8048ad1:	89 04 24             	mov    %eax,(%esp)
 8048ad4:	e8 28 02 00 00       	call   8048d01 <phase_6>
 8048ad9:	e8 85 08 00 00       	call   8049363 <phase_defused>
 8048ade:	b8 00 00 00 00       	mov    $0x0,%eax
 8048ae3:	8b 5d fc             	mov    -0x4(%ebp),%ebx
 8048ae6:	c9                   	leave  
 8048ae7:	c3                   	ret    
 8048ae8:	90                   	nop
 8048ae9:	90                   	nop
 8048aea:	90                   	nop
 8048aeb:	90                   	nop
 8048aec:	90                   	nop
 8048aed:	90                   	nop
 8048aee:	90                   	nop
 8048aef:	90                   	nop

08048af0 <phase_1>:
 8048af0:	83 ec 1c             	sub    $0x1c,%esp
 8048af3:	c7 44 24 04 28 a2 04 	movl   $0x804a228,0x4(%esp)
 8048afa:	08 
 8048afb:	8b 44 24 20          	mov    0x20(%esp),%eax
 8048aff:	89 04 24             	mov    %eax,(%esp)
 8048b02:	e8 1d 04 00 00       	call   8048f24 <strings_not_equal>
 8048b07:	85 c0                	test   %eax,%eax
 8048b09:	74 05                	je     8048b10 <phase_1+0x20>
 8048b0b:	e8 b6 06 00 00       	call   80491c6 <explode_bomb>
 8048b10:	83 c4 1c             	add    $0x1c,%esp
 8048b13:	c3                   	ret    

08048b14 <phase_2>:
 8048b14:	56                   	push   %esi
 8048b15:	53                   	push   %ebx
 8048b16:	83 ec 34             	sub    $0x34,%esp
 8048b19:	8d 44 24 18          	lea    0x18(%esp),%eax
 8048b1d:	89 44 24 04          	mov    %eax,0x4(%esp)
 8048b21:	8b 44 24 40          	mov    0x40(%esp),%eax
 8048b25:	89 04 24             	mov    %eax,(%esp)
 8048b28:	e8 e6 07 00 00       	call   8049313 <read_six_numbers>
 8048b2d:	83 7c 24 18 00       	cmpl   $0x0,0x18(%esp)
 8048b32:	75 07                	jne    8048b3b <phase_2+0x27>
 8048b34:	83 7c 24 1c 01       	cmpl   $0x1,0x1c(%esp)
 8048b39:	74 05                	je     8048b40 <phase_2+0x2c>
 8048b3b:	e8 86 06 00 00       	call   80491c6 <explode_bomb>
 8048b40:	8d 5c 24 20          	lea    0x20(%esp),%ebx
 8048b44:	8d 74 24 30          	lea    0x30(%esp),%esi
 8048b48:	8b 43 f8             	mov    -0x8(%ebx),%eax
 8048b4b:	03 43 fc             	add    -0x4(%ebx),%eax
 8048b4e:	39 03                	cmp    %eax,(%ebx)
 8048b50:	74 05                	je     8048b57 <phase_2+0x43>
 8048b52:	e8 6f 06 00 00       	call   80491c6 <explode_bomb>
 8048b57:	83 c3 04             	add    $0x4,%ebx
 8048b5a:	39 f3                	cmp    %esi,%ebx
 8048b5c:	75 ea                	jne    8048b48 <phase_2+0x34>
 8048b5e:	83 c4 34             	add    $0x34,%esp
 8048b61:	5b                   	pop    %ebx
 8048b62:	5e                   	pop    %esi
 8048b63:	c3                   	ret    

08048b64 <phase_3>:
 8048b64:	83 ec 2c             	sub    $0x2c,%esp
 8048b67:	8d 44 24 18          	lea    0x18(%esp),%eax
 8048b6b:	89 44 24 0c          	mov    %eax,0xc(%esp)
 8048b6f:	8d 44 24 1c          	lea    0x1c(%esp),%eax
 8048b73:	89 44 24 08          	mov    %eax,0x8(%esp)
 8048b77:	c7 44 24 04 75 a5 04 	movl   $0x804a575,0x4(%esp)
 8048b7e:	08 
 8048b7f:	8b 44 24 30          	mov    0x30(%esp),%eax
 8048b83:	89 04 24             	mov    %eax,(%esp)
 8048b86:	e8 cd fb ff ff       	call   8048758 <__isoc99_sscanf@plt>
 8048b8b:	83 f8 01             	cmp    $0x1,%eax
 8048b8e:	7f 05                	jg     8048b95 <phase_3+0x31>
 8048b90:	e8 31 06 00 00       	call   80491c6 <explode_bomb>
 8048b95:	83 7c 24 1c 07       	cmpl   $0x7,0x1c(%esp)
 8048b9a:	77 3c                	ja     8048bd8 <phase_3+0x74>
 8048b9c:	8b 44 24 1c          	mov    0x1c(%esp),%eax
 8048ba0:	ff 24 85 80 a2 04 08 	jmp    *0x804a280(,%eax,4)
 8048ba7:	b8 1d 01 00 00       	mov    $0x11d,%eax
 8048bac:	eb 3b                	jmp    8048be9 <phase_3+0x85>
 8048bae:	b8 0a 03 00 00       	mov    $0x30a,%eax
 8048bb3:	eb 34                	jmp    8048be9 <phase_3+0x85>
 8048bb5:	b8 3d 01 00 00       	mov    $0x13d,%eax
 8048bba:	eb 2d                	jmp    8048be9 <phase_3+0x85>
 8048bbc:	b8 ab 01 00 00       	mov    $0x1ab,%eax
 8048bc1:	eb 26                	jmp    8048be9 <phase_3+0x85>
 8048bc3:	b8 a8 02 00 00       	mov    $0x2a8,%eax
 8048bc8:	eb 1f                	jmp    8048be9 <phase_3+0x85>
 8048bca:	b8 63 02 00 00       	mov    $0x263,%eax
 8048bcf:	eb 18                	jmp    8048be9 <phase_3+0x85>
 8048bd1:	b8 ca 00 00 00       	mov    $0xca,%eax
 8048bd6:	eb 11                	jmp    8048be9 <phase_3+0x85>
 8048bd8:	e8 e9 05 00 00       	call   80491c6 <explode_bomb>
 8048bdd:	b8 00 00 00 00       	mov    $0x0,%eax
 8048be2:	eb 05                	jmp    8048be9 <phase_3+0x85>
 8048be4:	b8 6a 03 00 00       	mov    $0x36a,%eax
 8048be9:	3b 44 24 18          	cmp    0x18(%esp),%eax
 8048bed:	74 05                	je     8048bf4 <phase_3+0x90>
 8048bef:	e8 d2 05 00 00       	call   80491c6 <explode_bomb>
 8048bf4:	83 c4 2c             	add    $0x2c,%esp
 8048bf7:	c3                   	ret    

08048bf8 <func4>:
 8048bf8:	83 ec 1c             	sub    $0x1c,%esp
 8048bfb:	89 5c 24 10          	mov    %ebx,0x10(%esp)
 8048bff:	89 74 24 14          	mov    %esi,0x14(%esp)
 8048c03:	89 7c 24 18          	mov    %edi,0x18(%esp)
 8048c07:	8b 74 24 20          	mov    0x20(%esp),%esi
 8048c0b:	8b 5c 24 24          	mov    0x24(%esp),%ebx
 8048c0f:	85 f6                	test   %esi,%esi
 8048c11:	7e 2b                	jle    8048c3e <func4+0x46>
 8048c13:	83 fe 01             	cmp    $0x1,%esi
 8048c16:	74 2b                	je     8048c43 <func4+0x4b>
 8048c18:	89 5c 24 04          	mov    %ebx,0x4(%esp)
 8048c1c:	8d 46 ff             	lea    -0x1(%esi),%eax
 8048c1f:	89 04 24             	mov    %eax,(%esp)
 8048c22:	e8 d1 ff ff ff       	call   8048bf8 <func4>
 8048c27:	8d 3c 18             	lea    (%eax,%ebx,1),%edi
 8048c2a:	89 5c 24 04          	mov    %ebx,0x4(%esp)
 8048c2e:	83 ee 02             	sub    $0x2,%esi
 8048c31:	89 34 24             	mov    %esi,(%esp)
 8048c34:	e8 bf ff ff ff       	call   8048bf8 <func4>
 8048c39:	8d 1c 07             	lea    (%edi,%eax,1),%ebx
 8048c3c:	eb 05                	jmp    8048c43 <func4+0x4b>
 8048c3e:	bb 00 00 00 00       	mov    $0x0,%ebx
 8048c43:	89 d8                	mov    %ebx,%eax
 8048c45:	8b 5c 24 10          	mov    0x10(%esp),%ebx
 8048c49:	8b 74 24 14          	mov    0x14(%esp),%esi
 8048c4d:	8b 7c 24 18          	mov    0x18(%esp),%edi
 8048c51:	83 c4 1c             	add    $0x1c,%esp
 8048c54:	c3                   	ret    

08048c55 <phase_4>:
 8048c55:	83 ec 2c             	sub    $0x2c,%esp
 8048c58:	8d 44 24 1c          	lea    0x1c(%esp),%eax
 8048c5c:	89 44 24 0c          	mov    %eax,0xc(%esp)
 8048c60:	8d 44 24 18          	lea    0x18(%esp),%eax
 8048c64:	89 44 24 08          	mov    %eax,0x8(%esp)
 8048c68:	c7 44 24 04 75 a5 04 	movl   $0x804a575,0x4(%esp)
 8048c6f:	08 
 8048c70:	8b 44 24 30          	mov    0x30(%esp),%eax
 8048c74:	89 04 24             	mov    %eax,(%esp)
 8048c77:	e8 dc fa ff ff       	call   8048758 <__isoc99_sscanf@plt>
 8048c7c:	83 f8 02             	cmp    $0x2,%eax
 8048c7f:	75 0e                	jne    8048c8f <phase_4+0x3a>
 8048c81:	8b 44 24 1c          	mov    0x1c(%esp),%eax
 8048c85:	83 f8 01             	cmp    $0x1,%eax
 8048c88:	7e 05                	jle    8048c8f <phase_4+0x3a>
 8048c8a:	83 f8 04             	cmp    $0x4,%eax
 8048c8d:	7e 05                	jle    8048c94 <phase_4+0x3f>
 8048c8f:	e8 32 05 00 00       	call   80491c6 <explode_bomb>
 8048c94:	8b 44 24 1c          	mov    0x1c(%esp),%eax
 8048c98:	89 44 24 04          	mov    %eax,0x4(%esp)
 8048c9c:	c7 04 24 09 00 00 00 	movl   $0x9,(%esp)
 8048ca3:	e8 50 ff ff ff       	call   8048bf8 <func4>
 8048ca8:	3b 44 24 18          	cmp    0x18(%esp),%eax
 8048cac:	74 05                	je     8048cb3 <phase_4+0x5e>
 8048cae:	e8 13 05 00 00       	call   80491c6 <explode_bomb>
 8048cb3:	83 c4 2c             	add    $0x2c,%esp
 8048cb6:	c3                   	ret    

08048cb7 <phase_5>:
 8048cb7:	53                   	push   %ebx
 8048cb8:	83 ec 18             	sub    $0x18,%esp
 8048cbb:	8b 5c 24 20          	mov    0x20(%esp),%ebx
 8048cbf:	89 1c 24             	mov    %ebx,(%esp)
 8048cc2:	e8 44 02 00 00       	call   8048f0b <string_length>
 8048cc7:	83 f8 06             	cmp    $0x6,%eax
 8048cca:	74 05                	je     8048cd1 <phase_5+0x1a>
 8048ccc:	e8 f5 04 00 00       	call   80491c6 <explode_bomb>
 8048cd1:	ba 00 00 00 00       	mov    $0x0,%edx
 8048cd6:	b8 00 00 00 00       	mov    $0x0,%eax
 8048cdb:	0f be 0c 03          	movsbl (%ebx,%eax,1),%ecx
 8048cdf:	83 e1 0f             	and    $0xf,%ecx
 8048ce2:	03 14 8d a0 a2 04 08 	add    0x804a2a0(,%ecx,4),%edx
 8048ce9:	83 c0 01             	add    $0x1,%eax
 8048cec:	83 f8 06             	cmp    $0x6,%eax
 8048cef:	75 ea                	jne    8048cdb <phase_5+0x24>
 8048cf1:	83 fa 33             	cmp    $0x33,%edx
 8048cf4:	74 05                	je     8048cfb <phase_5+0x44>
 8048cf6:	e8 cb 04 00 00       	call   80491c6 <explode_bomb>
 8048cfb:	83 c4 18             	add    $0x18,%esp
 8048cfe:	5b                   	pop    %ebx
 8048cff:	90                   	nop
 8048d00:	c3                   	ret    

08048d01 <phase_6>:
 8048d01:	56                   	push   %esi
 8048d02:	53                   	push   %ebx
 8048d03:	83 ec 44             	sub    $0x44,%esp
 8048d06:	8d 44 24 28          	lea    0x28(%esp),%eax
 8048d0a:	89 44 24 04          	mov    %eax,0x4(%esp)
 8048d0e:	8b 44 24 50          	mov    0x50(%esp),%eax
 8048d12:	89 04 24             	mov    %eax,(%esp)
 8048d15:	e8 f9 05 00 00       	call   8049313 <read_six_numbers>
 8048d1a:	be 00 00 00 00       	mov    $0x0,%esi
 8048d1f:	8b 44 b4 28          	mov    0x28(%esp,%esi,4),%eax
 8048d23:	83 e8 01             	sub    $0x1,%eax
 8048d26:	83 f8 05             	cmp    $0x5,%eax
 8048d29:	76 05                	jbe    8048d30 <phase_6+0x2f>
 8048d2b:	e8 96 04 00 00       	call   80491c6 <explode_bomb>
 8048d30:	83 c6 01             	add    $0x1,%esi
 8048d33:	83 fe 06             	cmp    $0x6,%esi
 8048d36:	74 33                	je     8048d6b <phase_6+0x6a>
 8048d38:	89 f3                	mov    %esi,%ebx
 8048d3a:	8b 44 9c 28          	mov    0x28(%esp,%ebx,4),%eax
 8048d3e:	39 44 b4 24          	cmp    %eax,0x24(%esp,%esi,4)
 8048d42:	75 05                	jne    8048d49 <phase_6+0x48>
 8048d44:	e8 7d 04 00 00       	call   80491c6 <explode_bomb>
 8048d49:	83 c3 01             	add    $0x1,%ebx
 8048d4c:	83 fb 05             	cmp    $0x5,%ebx
 8048d4f:	7e e9                	jle    8048d3a <phase_6+0x39>
 8048d51:	eb cc                	jmp    8048d1f <phase_6+0x1e>
 8048d53:	8b 52 08             	mov    0x8(%edx),%edx
 8048d56:	83 c0 01             	add    $0x1,%eax
 8048d59:	39 c8                	cmp    %ecx,%eax
 8048d5b:	75 f6                	jne    8048d53 <phase_6+0x52>
 8048d5d:	89 54 b4 10          	mov    %edx,0x10(%esp,%esi,4)
 8048d61:	83 c3 01             	add    $0x1,%ebx
 8048d64:	83 fb 06             	cmp    $0x6,%ebx
 8048d67:	75 07                	jne    8048d70 <phase_6+0x6f>
 8048d69:	eb 1c                	jmp    8048d87 <phase_6+0x86>
 8048d6b:	bb 00 00 00 00       	mov    $0x0,%ebx
 8048d70:	89 de                	mov    %ebx,%esi
 8048d72:	8b 4c 9c 28          	mov    0x28(%esp,%ebx,4),%ecx
 8048d76:	b8 01 00 00 00       	mov    $0x1,%eax
 8048d7b:	ba 34 b2 04 08       	mov    $0x804b234,%edx
 8048d80:	83 f9 01             	cmp    $0x1,%ecx
 8048d83:	7f ce                	jg     8048d53 <phase_6+0x52>
 8048d85:	eb d6                	jmp    8048d5d <phase_6+0x5c>
 8048d87:	8b 5c 24 10          	mov    0x10(%esp),%ebx
 8048d8b:	8b 44 24 14          	mov    0x14(%esp),%eax
 8048d8f:	89 43 08             	mov    %eax,0x8(%ebx)
 8048d92:	8b 54 24 18          	mov    0x18(%esp),%edx
 8048d96:	89 50 08             	mov    %edx,0x8(%eax)
 8048d99:	8b 44 24 1c          	mov    0x1c(%esp),%eax
 8048d9d:	89 42 08             	mov    %eax,0x8(%edx)
 8048da0:	8b 54 24 20          	mov    0x20(%esp),%edx
 8048da4:	89 50 08             	mov    %edx,0x8(%eax)
 8048da7:	8b 44 24 24          	mov    0x24(%esp),%eax
 8048dab:	89 42 08             	mov    %eax,0x8(%edx)
 8048dae:	c7 40 08 00 00 00 00 	movl   $0x0,0x8(%eax)
 8048db5:	be 05 00 00 00       	mov    $0x5,%esi
 8048dba:	8b 43 08             	mov    0x8(%ebx),%eax
 8048dbd:	8b 10                	mov    (%eax),%edx
 8048dbf:	39 13                	cmp    %edx,(%ebx)
 8048dc1:	7e 05                	jle    8048dc8 <phase_6+0xc7>
 8048dc3:	e8 fe 03 00 00       	call   80491c6 <explode_bomb>
 8048dc8:	8b 5b 08             	mov    0x8(%ebx),%ebx
 8048dcb:	83 ee 01             	sub    $0x1,%esi
 8048dce:	75 ea                	jne    8048dba <phase_6+0xb9>
 8048dd0:	83 c4 44             	add    $0x44,%esp
 8048dd3:	5b                   	pop    %ebx
 8048dd4:	5e                   	pop    %esi
 8048dd5:	c3                   	ret    

08048dd6 <fun7>:
 8048dd6:	53                   	push   %ebx
 8048dd7:	83 ec 18             	sub    $0x18,%esp
 8048dda:	8b 54 24 20          	mov    0x20(%esp),%edx
 8048dde:	8b 4c 24 24          	mov    0x24(%esp),%ecx
 8048de2:	85 d2                	test   %edx,%edx
 8048de4:	74 37                	je     8048e1d <fun7+0x47>
 8048de6:	8b 1a                	mov    (%edx),%ebx
 8048de8:	39 cb                	cmp    %ecx,%ebx
 8048dea:	7e 13                	jle    8048dff <fun7+0x29>
 8048dec:	89 4c 24 04          	mov    %ecx,0x4(%esp)
 8048df0:	8b 42 04             	mov    0x4(%edx),%eax
 8048df3:	89 04 24             	mov    %eax,(%esp)
 8048df6:	e8 db ff ff ff       	call   8048dd6 <fun7>
 8048dfb:	01 c0                	add    %eax,%eax
 8048dfd:	eb 23                	jmp    8048e22 <fun7+0x4c>
 8048dff:	b8 00 00 00 00       	mov    $0x0,%eax
 8048e04:	39 cb                	cmp    %ecx,%ebx
 8048e06:	74 1a                	je     8048e22 <fun7+0x4c>
 8048e08:	89 4c 24 04          	mov    %ecx,0x4(%esp)
 8048e0c:	8b 42 08             	mov    0x8(%edx),%eax
 8048e0f:	89 04 24             	mov    %eax,(%esp)
 8048e12:	e8 bf ff ff ff       	call   8048dd6 <fun7>
 8048e17:	8d 44 00 01          	lea    0x1(%eax,%eax,1),%eax
 8048e1b:	eb 05                	jmp    8048e22 <fun7+0x4c>
 8048e1d:	b8 ff ff ff ff       	mov    $0xffffffff,%eax
 8048e22:	83 c4 18             	add    $0x18,%esp
 8048e25:	5b                   	pop    %ebx
 8048e26:	c3                   	ret    

08048e27 <secret_phase>:
 8048e27:	53                   	push   %ebx
 8048e28:	83 ec 18             	sub    $0x18,%esp
 8048e2b:	e8 d5 03 00 00       	call   8049205 <read_line>
 8048e30:	c7 44 24 08 0a 00 00 	movl   $0xa,0x8(%esp)
 8048e37:	00 
 8048e38:	c7 44 24 04 00 00 00 	movl   $0x0,0x4(%esp)
 8048e3f:	00 
 8048e40:	89 04 24             	mov    %eax,(%esp)
 8048e43:	e8 70 f9 ff ff       	call   80487b8 <strtol@plt>
 8048e48:	89 c3                	mov    %eax,%ebx
 8048e4a:	8d 40 ff             	lea    -0x1(%eax),%eax
 8048e4d:	3d e8 03 00 00       	cmp    $0x3e8,%eax
 8048e52:	76 05                	jbe    8048e59 <secret_phase+0x32>
 8048e54:	e8 6d 03 00 00       	call   80491c6 <explode_bomb>
 8048e59:	89 5c 24 04          	mov    %ebx,0x4(%esp)
 8048e5d:	c7 04 24 80 b1 04 08 	movl   $0x804b180,(%esp)
 8048e64:	e8 6d ff ff ff       	call   8048dd6 <fun7>
 8048e69:	83 f8 06             	cmp    $0x6,%eax
 8048e6c:	74 05                	je     8048e73 <secret_phase+0x4c>
 8048e6e:	e8 53 03 00 00       	call   80491c6 <explode_bomb>
 8048e73:	c7 04 24 4c a2 04 08 	movl   $0x804a24c,(%esp)
 8048e7a:	e8 29 fa ff ff       	call   80488a8 <puts@plt>
 8048e7f:	e8 df 04 00 00       	call   8049363 <phase_defused>
 8048e84:	83 c4 18             	add    $0x18,%esp
 8048e87:	5b                   	pop    %ebx
 8048e88:	c3                   	ret    
 8048e89:	90                   	nop
 8048e8a:	90                   	nop
 8048e8b:	90                   	nop
 8048e8c:	90                   	nop
 8048e8d:	90                   	nop
 8048e8e:	90                   	nop
 8048e8f:	90                   	nop

08048e90 <sig_handler>:
 8048e90:	83 ec 1c             	sub    $0x1c,%esp
 8048e93:	c7 04 24 e0 a2 04 08 	movl   $0x804a2e0,(%esp)
 8048e9a:	e8 09 fa ff ff       	call   80488a8 <puts@plt>
 8048e9f:	c7 04 24 03 00 00 00 	movl   $0x3,(%esp)
 8048ea6:	e8 ed f9 ff ff       	call   8048898 <sleep@plt>
 8048eab:	c7 04 24 9d a4 04 08 	movl   $0x804a49d,(%esp)
 8048eb2:	e8 91 f9 ff ff       	call   8048848 <printf@plt>
 8048eb7:	a1 c0 b8 04 08       	mov    0x804b8c0,%eax
 8048ebc:	89 04 24             	mov    %eax,(%esp)
 8048ebf:	e8 04 f9 ff ff       	call   80487c8 <fflush@plt>
 8048ec4:	c7 04 24 01 00 00 00 	movl   $0x1,(%esp)
 8048ecb:	e8 c8 f9 ff ff       	call   8048898 <sleep@plt>
 8048ed0:	c7 04 24 a5 a4 04 08 	movl   $0x804a4a5,(%esp)
 8048ed7:	e8 cc f9 ff ff       	call   80488a8 <puts@plt>
 8048edc:	c7 04 24 10 00 00 00 	movl   $0x10,(%esp)
 8048ee3:	e8 e0 f9 ff ff       	call   80488c8 <exit@plt>

08048ee8 <invalid_phase>:
 8048ee8:	83 ec 1c             	sub    $0x1c,%esp
 8048eeb:	8b 44 24 20          	mov    0x20(%esp),%eax
 8048eef:	89 44 24 04          	mov    %eax,0x4(%esp)
 8048ef3:	c7 04 24 ad a4 04 08 	movl   $0x804a4ad,(%esp)
 8048efa:	e8 49 f9 ff ff       	call   8048848 <printf@plt>
 8048eff:	c7 04 24 08 00 00 00 	movl   $0x8,(%esp)
 8048f06:	e8 bd f9 ff ff       	call   80488c8 <exit@plt>

08048f0b <string_length>:
 8048f0b:	8b 54 24 04          	mov    0x4(%esp),%edx
 8048f0f:	b8 00 00 00 00       	mov    $0x0,%eax
 8048f14:	80 3a 00             	cmpb   $0x0,(%edx)
 8048f17:	74 09                	je     8048f22 <string_length+0x17>
 8048f19:	83 c0 01             	add    $0x1,%eax
 8048f1c:	80 3c 02 00          	cmpb   $0x0,(%edx,%eax,1)
 8048f20:	75 f7                	jne    8048f19 <string_length+0xe>
 8048f22:	f3 c3                	repz ret 

08048f24 <strings_not_equal>:
 8048f24:	83 ec 10             	sub    $0x10,%esp
 8048f27:	89 5c 24 04          	mov    %ebx,0x4(%esp)
 8048f2b:	89 74 24 08          	mov    %esi,0x8(%esp)
 8048f2f:	89 7c 24 0c          	mov    %edi,0xc(%esp)
 8048f33:	8b 5c 24 14          	mov    0x14(%esp),%ebx
 8048f37:	8b 74 24 18          	mov    0x18(%esp),%esi
 8048f3b:	89 1c 24             	mov    %ebx,(%esp)
 8048f3e:	e8 c8 ff ff ff       	call   8048f0b <string_length>
 8048f43:	89 c7                	mov    %eax,%edi
 8048f45:	89 34 24             	mov    %esi,(%esp)
 8048f48:	e8 be ff ff ff       	call   8048f0b <string_length>
 8048f4d:	ba 01 00 00 00       	mov    $0x1,%edx
 8048f52:	39 c7                	cmp    %eax,%edi
 8048f54:	75 33                	jne    8048f89 <strings_not_equal+0x65>
 8048f56:	0f b6 03             	movzbl (%ebx),%eax
 8048f59:	b2 00                	mov    $0x0,%dl
 8048f5b:	84 c0                	test   %al,%al
 8048f5d:	74 2a                	je     8048f89 <strings_not_equal+0x65>
 8048f5f:	b2 01                	mov    $0x1,%dl
 8048f61:	3a 06                	cmp    (%esi),%al
 8048f63:	75 24                	jne    8048f89 <strings_not_equal+0x65>
 8048f65:	b8 00 00 00 00       	mov    $0x0,%eax
 8048f6a:	eb 08                	jmp    8048f74 <strings_not_equal+0x50>
 8048f6c:	83 c0 01             	add    $0x1,%eax
 8048f6f:	3a 14 06             	cmp    (%esi,%eax,1),%dl
 8048f72:	75 10                	jne    8048f84 <strings_not_equal+0x60>
 8048f74:	0f b6 54 03 01       	movzbl 0x1(%ebx,%eax,1),%edx
 8048f79:	84 d2                	test   %dl,%dl
 8048f7b:	75 ef                	jne    8048f6c <strings_not_equal+0x48>
 8048f7d:	ba 00 00 00 00       	mov    $0x0,%edx
 8048f82:	eb 05                	jmp    8048f89 <strings_not_equal+0x65>
 8048f84:	ba 01 00 00 00       	mov    $0x1,%edx
 8048f89:	89 d0                	mov    %edx,%eax
 8048f8b:	8b 5c 24 04          	mov    0x4(%esp),%ebx
 8048f8f:	8b 74 24 08          	mov    0x8(%esp),%esi
 8048f93:	8b 7c 24 0c          	mov    0xc(%esp),%edi
 8048f97:	83 c4 10             	add    $0x10,%esp
 8048f9a:	c3                   	ret    

08048f9b <initialize_bomb>:
 8048f9b:	56                   	push   %esi
 8048f9c:	53                   	push   %ebx
 8048f9d:	81 ec 54 20 00 00    	sub    $0x2054,%esp
 8048fa3:	c7 44 24 04 90 8e 04 	movl   $0x8048e90,0x4(%esp)
 8048faa:	08 
 8048fab:	c7 04 24 02 00 00 00 	movl   $0x2,(%esp)
 8048fb2:	e8 81 f7 ff ff       	call   8048738 <signal@plt>
 8048fb7:	c7 44 24 04 40 00 00 	movl   $0x40,0x4(%esp)
 8048fbe:	00 
 8048fbf:	8d 84 24 10 20 00 00 	lea    0x2010(%esp),%eax
 8048fc6:	89 04 24             	mov    %eax,(%esp)
 8048fc9:	e8 ba f8 ff ff       	call   8048888 <gethostname@plt>
 8048fce:	85 c0                	test   %eax,%eax
 8048fd0:	75 17                	jne    8048fe9 <initialize_bomb+0x4e>
 8048fd2:	a1 a0 b6 04 08       	mov    0x804b6a0,%eax
 8048fd7:	bb 00 00 00 00       	mov    $0x0,%ebx
 8048fdc:	8d b4 24 10 20 00 00 	lea    0x2010(%esp),%esi
 8048fe3:	85 c0                	test   %eax,%eax
 8048fe5:	75 1a                	jne    8049001 <initialize_bomb+0x66>
 8048fe7:	eb 68                	jmp    8049051 <initialize_bomb+0xb6>
 8048fe9:	c7 04 24 18 a3 04 08 	movl   $0x804a318,(%esp)
 8048ff0:	e8 b3 f8 ff ff       	call   80488a8 <puts@plt>
 8048ff5:	c7 04 24 08 00 00 00 	movl   $0x8,(%esp)
 8048ffc:	e8 c7 f8 ff ff       	call   80488c8 <exit@plt>
 8049001:	89 74 24 04          	mov    %esi,0x4(%esp)
 8049005:	89 04 24             	mov    %eax,(%esp)
 8049008:	e8 4b f8 ff ff       	call   8048858 <strcasecmp@plt>
 804900d:	85 c0                	test   %eax,%eax
 804900f:	74 10                	je     8049021 <initialize_bomb+0x86>
 8049011:	83 c3 01             	add    $0x1,%ebx
 8049014:	8b 04 9d a0 b6 04 08 	mov    0x804b6a0(,%ebx,4),%eax
 804901b:	85 c0                	test   %eax,%eax
 804901d:	75 e2                	jne    8049001 <initialize_bomb+0x66>
 804901f:	eb 30                	jmp    8049051 <initialize_bomb+0xb6>
 8049021:	8d 44 24 10          	lea    0x10(%esp),%eax
 8049025:	89 04 24             	mov    %eax,(%esp)
 8049028:	e8 70 0d 00 00       	call   8049d9d <init_driver>
 804902d:	85 c0                	test   %eax,%eax
 804902f:	79 38                	jns    8049069 <initialize_bomb+0xce>
 8049031:	8d 44 24 10          	lea    0x10(%esp),%eax
 8049035:	89 44 24 04          	mov    %eax,0x4(%esp)
 8049039:	c7 04 24 be a4 04 08 	movl   $0x804a4be,(%esp)
 8049040:	e8 03 f8 ff ff       	call   8048848 <printf@plt>
 8049045:	c7 04 24 08 00 00 00 	movl   $0x8,(%esp)
 804904c:	e8 77 f8 ff ff       	call   80488c8 <exit@plt>
 8049051:	c7 04 24 50 a3 04 08 	movl   $0x804a350,(%esp)
 8049058:	e8 4b f8 ff ff       	call   80488a8 <puts@plt>
 804905d:	c7 04 24 08 00 00 00 	movl   $0x8,(%esp)
 8049064:	e8 5f f8 ff ff       	call   80488c8 <exit@plt>
 8049069:	81 c4 54 20 00 00    	add    $0x2054,%esp
 804906f:	5b                   	pop    %ebx
 8049070:	5e                   	pop    %esi
 8049071:	c3                   	ret    

08049072 <initialize_bomb_solve>:
 8049072:	f3 c3                	repz ret 

08049074 <blank_line>:
 8049074:	56                   	push   %esi
 8049075:	53                   	push   %ebx
 8049076:	83 ec 04             	sub    $0x4,%esp
 8049079:	8b 74 24 10          	mov    0x10(%esp),%esi
 804907d:	eb 14                	jmp    8049093 <blank_line+0x1f>
 804907f:	e8 64 f7 ff ff       	call   80487e8 <__ctype_b_loc@plt>
 8049084:	83 c6 01             	add    $0x1,%esi
 8049087:	0f be db             	movsbl %bl,%ebx
 804908a:	8b 00                	mov    (%eax),%eax
 804908c:	f6 44 58 01 20       	testb  $0x20,0x1(%eax,%ebx,2)
 8049091:	74 0e                	je     80490a1 <blank_line+0x2d>
 8049093:	0f b6 1e             	movzbl (%esi),%ebx
 8049096:	84 db                	test   %bl,%bl
 8049098:	75 e5                	jne    804907f <blank_line+0xb>
 804909a:	b8 01 00 00 00       	mov    $0x1,%eax
 804909f:	eb 05                	jmp    80490a6 <blank_line+0x32>
 80490a1:	b8 00 00 00 00       	mov    $0x0,%eax
 80490a6:	83 c4 04             	add    $0x4,%esp
 80490a9:	5b                   	pop    %ebx
 80490aa:	5e                   	pop    %esi
 80490ab:	c3                   	ret    

080490ac <skip>:
 80490ac:	53                   	push   %ebx
 80490ad:	83 ec 18             	sub    $0x18,%esp
 80490b0:	a1 d0 b8 04 08       	mov    0x804b8d0,%eax
 80490b5:	89 44 24 08          	mov    %eax,0x8(%esp)
 80490b9:	c7 44 24 04 50 00 00 	movl   $0x50,0x4(%esp)
 80490c0:	00 
 80490c1:	a1 cc b8 04 08       	mov    0x804b8cc,%eax
 80490c6:	8d 04 80             	lea    (%eax,%eax,4),%eax
 80490c9:	c1 e0 04             	shl    $0x4,%eax
 80490cc:	05 e0 b8 04 08       	add    $0x804b8e0,%eax
 80490d1:	89 04 24             	mov    %eax,(%esp)
 80490d4:	e8 af f6 ff ff       	call   8048788 <fgets@plt>
 80490d9:	89 c3                	mov    %eax,%ebx
 80490db:	85 c0                	test   %eax,%eax
 80490dd:	74 0c                	je     80490eb <skip+0x3f>
 80490df:	89 04 24             	mov    %eax,(%esp)
 80490e2:	e8 8d ff ff ff       	call   8049074 <blank_line>
 80490e7:	85 c0                	test   %eax,%eax
 80490e9:	75 c5                	jne    80490b0 <skip+0x4>
 80490eb:	89 d8                	mov    %ebx,%eax
 80490ed:	83 c4 18             	add    $0x18,%esp
 80490f0:	5b                   	pop    %ebx
 80490f1:	c3                   	ret    

080490f2 <send_msg>:
 80490f2:	57                   	push   %edi
 80490f3:	53                   	push   %ebx
 80490f4:	81 ec 24 40 00 00    	sub    $0x4024,%esp
 80490fa:	8b 15 cc b8 04 08    	mov    0x804b8cc,%edx
 8049100:	8d 5c 92 fb          	lea    -0x5(%edx,%edx,4),%ebx
 8049104:	c1 e3 04             	shl    $0x4,%ebx
 8049107:	81 c3 e0 b8 04 08    	add    $0x804b8e0,%ebx
 804910d:	89 df                	mov    %ebx,%edi
 804910f:	b8 00 00 00 00       	mov    $0x0,%eax
 8049114:	b9 ff ff ff ff       	mov    $0xffffffff,%ecx
 8049119:	f2 ae                	repnz scas %es:(%edi),%al
 804911b:	f7 d1                	not    %ecx
 804911d:	83 c1 63             	add    $0x63,%ecx
 8049120:	81 f9 00 20 00 00    	cmp    $0x2000,%ecx
 8049126:	76 18                	jbe    8049140 <send_msg+0x4e>
 8049128:	c7 04 24 88 a3 04 08 	movl   $0x804a388,(%esp)
 804912f:	e8 14 f7 ff ff       	call   8048848 <printf@plt>
 8049134:	c7 04 24 08 00 00 00 	movl   $0x8,(%esp)
 804913b:	e8 88 f7 ff ff       	call   80488c8 <exit@plt>
 8049140:	83 bc 24 30 40 00 00 	cmpl   $0x0,0x4030(%esp)
 8049147:	00 
 8049148:	b8 d8 a4 04 08       	mov    $0x804a4d8,%eax
 804914d:	b9 e0 a4 04 08       	mov    $0x804a4e0,%ecx
 8049152:	0f 44 c1             	cmove  %ecx,%eax
 8049155:	89 5c 24 14          	mov    %ebx,0x14(%esp)
 8049159:	89 54 24 10          	mov    %edx,0x10(%esp)
 804915d:	89 44 24 0c          	mov    %eax,0xc(%esp)
 8049161:	a1 80 b6 04 08       	mov    0x804b680,%eax
 8049166:	89 44 24 08          	mov    %eax,0x8(%esp)
 804916a:	c7 44 24 04 e9 a4 04 	movl   $0x804a4e9,0x4(%esp)
 8049171:	08 
 8049172:	8d 9c 24 20 20 00 00 	lea    0x2020(%esp),%ebx
 8049179:	89 1c 24             	mov    %ebx,(%esp)
 804917c:	e8 97 f5 ff ff       	call   8048718 <sprintf@plt>
 8049181:	8d 44 24 20          	lea    0x20(%esp),%eax
 8049185:	89 44 24 0c          	mov    %eax,0xc(%esp)
 8049189:	c7 44 24 08 00 00 00 	movl   $0x0,0x8(%esp)
 8049190:	00 
 8049191:	89 5c 24 04          	mov    %ebx,0x4(%esp)
 8049195:	c7 04 24 80 b2 04 08 	movl   $0x804b280,(%esp)
 804919c:	e8 d4 0d 00 00       	call   8049f75 <driver_post>
 80491a1:	85 c0                	test   %eax,%eax
 80491a3:	79 18                	jns    80491bd <send_msg+0xcb>
 80491a5:	8d 44 24 20          	lea    0x20(%esp),%eax
 80491a9:	89 04 24             	mov    %eax,(%esp)
 80491ac:	e8 f7 f6 ff ff       	call   80488a8 <puts@plt>
 80491b1:	c7 04 24 00 00 00 00 	movl   $0x0,(%esp)
 80491b8:	e8 0b f7 ff ff       	call   80488c8 <exit@plt>
 80491bd:	81 c4 24 40 00 00    	add    $0x4024,%esp
 80491c3:	5b                   	pop    %ebx
 80491c4:	5f                   	pop    %edi
 80491c5:	c3                   	ret    

080491c6 <explode_bomb>:
 80491c6:	83 ec 1c             	sub    $0x1c,%esp
 80491c9:	c7 04 24 f5 a4 04 08 	movl   $0x804a4f5,(%esp)
 80491d0:	e8 d3 f6 ff ff       	call   80488a8 <puts@plt>
 80491d5:	c7 04 24 fe a4 04 08 	movl   $0x804a4fe,(%esp)
 80491dc:	e8 c7 f6 ff ff       	call   80488a8 <puts@plt>
 80491e1:	c7 04 24 00 00 00 00 	movl   $0x0,(%esp)
 80491e8:	e8 05 ff ff ff       	call   80490f2 <send_msg>
 80491ed:	c7 04 24 ac a3 04 08 	movl   $0x804a3ac,(%esp)
 80491f4:	e8 af f6 ff ff       	call   80488a8 <puts@plt>
 80491f9:	c7 04 24 08 00 00 00 	movl   $0x8,(%esp)
 8049200:	e8 c3 f6 ff ff       	call   80488c8 <exit@plt>

08049205 <read_line>:
 8049205:	83 ec 2c             	sub    $0x2c,%esp
 8049208:	89 5c 24 20          	mov    %ebx,0x20(%esp)
 804920c:	89 74 24 24          	mov    %esi,0x24(%esp)
 8049210:	89 7c 24 28          	mov    %edi,0x28(%esp)
 8049214:	e8 93 fe ff ff       	call   80490ac <skip>
 8049219:	85 c0                	test   %eax,%eax
 804921b:	75 6c                	jne    8049289 <read_line+0x84>
 804921d:	a1 a4 b8 04 08       	mov    0x804b8a4,%eax
 8049222:	39 05 d0 b8 04 08    	cmp    %eax,0x804b8d0
 8049228:	75 18                	jne    8049242 <read_line+0x3d>
 804922a:	c7 04 24 15 a5 04 08 	movl   $0x804a515,(%esp)
 8049231:	e8 72 f6 ff ff       	call   80488a8 <puts@plt>
 8049236:	c7 04 24 08 00 00 00 	movl   $0x8,(%esp)
 804923d:	e8 86 f6 ff ff       	call   80488c8 <exit@plt>
 8049242:	c7 04 24 33 a5 04 08 	movl   $0x804a533,(%esp)
 8049249:	e8 1a f5 ff ff       	call   8048768 <getenv@plt>
 804924e:	85 c0                	test   %eax,%eax
 8049250:	74 0c                	je     804925e <read_line+0x59>
 8049252:	c7 04 24 00 00 00 00 	movl   $0x0,(%esp)
 8049259:	e8 6a f6 ff ff       	call   80488c8 <exit@plt>
 804925e:	a1 a4 b8 04 08       	mov    0x804b8a4,%eax
 8049263:	a3 d0 b8 04 08       	mov    %eax,0x804b8d0
 8049268:	e8 3f fe ff ff       	call   80490ac <skip>
 804926d:	85 c0                	test   %eax,%eax
 804926f:	75 18                	jne    8049289 <read_line+0x84>
 8049271:	c7 04 24 15 a5 04 08 	movl   $0x804a515,(%esp)
 8049278:	e8 2b f6 ff ff       	call   80488a8 <puts@plt>
 804927d:	c7 04 24 00 00 00 00 	movl   $0x0,(%esp)
 8049284:	e8 3f f6 ff ff       	call   80488c8 <exit@plt>
 8049289:	8b 15 cc b8 04 08    	mov    0x804b8cc,%edx
 804928f:	8d 1c 92             	lea    (%edx,%edx,4),%ebx
 8049292:	c1 e3 04             	shl    $0x4,%ebx
 8049295:	81 c3 e0 b8 04 08    	add    $0x804b8e0,%ebx
 804929b:	89 df                	mov    %ebx,%edi
 804929d:	b8 00 00 00 00       	mov    $0x0,%eax
 80492a2:	b9 ff ff ff ff       	mov    $0xffffffff,%ecx
 80492a7:	f2 ae                	repnz scas %es:(%edi),%al
 80492a9:	f7 d1                	not    %ecx
 80492ab:	83 e9 01             	sub    $0x1,%ecx
 80492ae:	83 f9 4e             	cmp    $0x4e,%ecx
 80492b1:	7e 37                	jle    80492ea <read_line+0xe5>
 80492b3:	c7 04 24 3e a5 04 08 	movl   $0x804a53e,(%esp)
 80492ba:	e8 e9 f5 ff ff       	call   80488a8 <puts@plt>
 80492bf:	a1 cc b8 04 08       	mov    0x804b8cc,%eax
 80492c4:	8d 50 01             	lea    0x1(%eax),%edx
 80492c7:	89 15 cc b8 04 08    	mov    %edx,0x804b8cc
 80492cd:	6b c0 50             	imul   $0x50,%eax,%eax
 80492d0:	05 e0 b8 04 08       	add    $0x804b8e0,%eax
 80492d5:	ba 59 a5 04 08       	mov    $0x804a559,%edx
 80492da:	b9 04 00 00 00       	mov    $0x4,%ecx
 80492df:	89 c7                	mov    %eax,%edi
 80492e1:	89 d6                	mov    %edx,%esi
 80492e3:	f3 a5                	rep movsl %ds:(%esi),%es:(%edi)
 80492e5:	e8 dc fe ff ff       	call   80491c6 <explode_bomb>
 80492ea:	8d 04 92             	lea    (%edx,%edx,4),%eax
 80492ed:	c1 e0 04             	shl    $0x4,%eax
 80492f0:	c6 84 01 df b8 04 08 	movb   $0x0,0x804b8df(%ecx,%eax,1)
 80492f7:	00 
 80492f8:	83 c2 01             	add    $0x1,%edx
 80492fb:	89 15 cc b8 04 08    	mov    %edx,0x804b8cc
 8049301:	89 d8                	mov    %ebx,%eax
 8049303:	8b 5c 24 20          	mov    0x20(%esp),%ebx
 8049307:	8b 74 24 24          	mov    0x24(%esp),%esi
 804930b:	8b 7c 24 28          	mov    0x28(%esp),%edi
 804930f:	83 c4 2c             	add    $0x2c,%esp
 8049312:	c3                   	ret    

08049313 <read_six_numbers>:
 8049313:	83 ec 2c             	sub    $0x2c,%esp
 8049316:	8b 44 24 34          	mov    0x34(%esp),%eax
 804931a:	8d 50 14             	lea    0x14(%eax),%edx
 804931d:	89 54 24 1c          	mov    %edx,0x1c(%esp)
 8049321:	8d 50 10             	lea    0x10(%eax),%edx
 8049324:	89 54 24 18          	mov    %edx,0x18(%esp)
 8049328:	8d 50 0c             	lea    0xc(%eax),%edx
 804932b:	89 54 24 14          	mov    %edx,0x14(%esp)
 804932f:	8d 50 08             	lea    0x8(%eax),%edx
 8049332:	89 54 24 10          	mov    %edx,0x10(%esp)
 8049336:	8d 50 04             	lea    0x4(%eax),%edx
 8049339:	89 54 24 0c          	mov    %edx,0xc(%esp)
 804933d:	89 44 24 08          	mov    %eax,0x8(%esp)
 8049341:	c7 44 24 04 69 a5 04 	movl   $0x804a569,0x4(%esp)
 8049348:	08 
 8049349:	8b 44 24 30          	mov    0x30(%esp),%eax
 804934d:	89 04 24             	mov    %eax,(%esp)
 8049350:	e8 03 f4 ff ff       	call   8048758 <__isoc99_sscanf@plt>
 8049355:	83 f8 05             	cmp    $0x5,%eax
 8049358:	7f 05                	jg     804935f <read_six_numbers+0x4c>
 804935a:	e8 67 fe ff ff       	call   80491c6 <explode_bomb>
 804935f:	83 c4 2c             	add    $0x2c,%esp
 8049362:	c3                   	ret    

08049363 <phase_defused>:
 8049363:	81 ec 8c 00 00 00    	sub    $0x8c,%esp
 8049369:	c7 04 24 01 00 00 00 	movl   $0x1,(%esp)
 8049370:	e8 7d fd ff ff       	call   80490f2 <send_msg>
 8049375:	83 3d cc b8 04 08 06 	cmpl   $0x6,0x804b8cc
 804937c:	75 7e                	jne    80493fc <phase_defused+0x99>
 804937e:	8d 44 24 30          	lea    0x30(%esp),%eax
 8049382:	89 44 24 10          	mov    %eax,0x10(%esp)
 8049386:	8d 44 24 28          	lea    0x28(%esp),%eax
 804938a:	89 44 24 0c          	mov    %eax,0xc(%esp)
 804938e:	8d 44 24 2c          	lea    0x2c(%esp),%eax
 8049392:	89 44 24 08          	mov    %eax,0x8(%esp)
 8049396:	c7 44 24 04 7b a5 04 	movl   $0x804a57b,0x4(%esp)
 804939d:	08 
 804939e:	c7 04 24 d0 b9 04 08 	movl   $0x804b9d0,(%esp)
 80493a5:	e8 ae f3 ff ff       	call   8048758 <__isoc99_sscanf@plt>
 80493aa:	83 f8 03             	cmp    $0x3,%eax
 80493ad:	75 35                	jne    80493e4 <phase_defused+0x81>
 80493af:	c7 44 24 04 84 a5 04 	movl   $0x804a584,0x4(%esp)
 80493b6:	08 
 80493b7:	8d 44 24 30          	lea    0x30(%esp),%eax
 80493bb:	89 04 24             	mov    %eax,(%esp)
 80493be:	e8 61 fb ff ff       	call   8048f24 <strings_not_equal>
 80493c3:	85 c0                	test   %eax,%eax
 80493c5:	75 1d                	jne    80493e4 <phase_defused+0x81>
 80493c7:	c7 04 24 d0 a3 04 08 	movl   $0x804a3d0,(%esp)
 80493ce:	e8 d5 f4 ff ff       	call   80488a8 <puts@plt>
 80493d3:	c7 04 24 f8 a3 04 08 	movl   $0x804a3f8,(%esp)
 80493da:	e8 c9 f4 ff ff       	call   80488a8 <puts@plt>
 80493df:	e8 43 fa ff ff       	call   8048e27 <secret_phase>
 80493e4:	c7 04 24 30 a4 04 08 	movl   $0x804a430,(%esp)
 80493eb:	e8 b8 f4 ff ff       	call   80488a8 <puts@plt>
 80493f0:	c7 04 24 5c a4 04 08 	movl   $0x804a45c,(%esp)
 80493f7:	e8 ac f4 ff ff       	call   80488a8 <puts@plt>
 80493fc:	81 c4 8c 00 00 00    	add    $0x8c,%esp
 8049402:	c3                   	ret    
 8049403:	90                   	nop
 8049404:	90                   	nop
 8049405:	90                   	nop
 8049406:	90                   	nop
 8049407:	90                   	nop
 8049408:	90                   	nop
 8049409:	90                   	nop
 804940a:	90                   	nop
 804940b:	90                   	nop
 804940c:	90                   	nop
 804940d:	90                   	nop
 804940e:	90                   	nop
 804940f:	90                   	nop

08049410 <rio_readlineb>:
 8049410:	55                   	push   %ebp
 8049411:	57                   	push   %edi
 8049412:	56                   	push   %esi
 8049413:	53                   	push   %ebx
 8049414:	83 ec 3c             	sub    $0x3c,%esp
 8049417:	89 c3                	mov    %eax,%ebx
 8049419:	83 f9 01             	cmp    $0x1,%ecx
 804941c:	0f 86 c1 00 00 00    	jbe    80494e3 <rio_readlineb+0xd3>
 8049422:	89 4c 24 18          	mov    %ecx,0x18(%esp)
 8049426:	89 54 24 14          	mov    %edx,0x14(%esp)
 804942a:	bd 01 00 00 00       	mov    $0x1,%ebp
 804942f:	8d 78 0c             	lea    0xc(%eax),%edi
 8049432:	eb 3c                	jmp    8049470 <rio_readlineb+0x60>
 8049434:	c7 44 24 08 00 20 00 	movl   $0x2000,0x8(%esp)
 804943b:	00 
 804943c:	89 7c 24 04          	mov    %edi,0x4(%esp)
 8049440:	8b 03                	mov    (%ebx),%eax
 8049442:	89 04 24             	mov    %eax,(%esp)
 8049445:	e8 5e f3 ff ff       	call   80487a8 <read@plt>
 804944a:	89 43 04             	mov    %eax,0x4(%ebx)
 804944d:	85 c0                	test   %eax,%eax
 804944f:	79 14                	jns    8049465 <rio_readlineb+0x55>
 8049451:	e8 b2 f2 ff ff       	call   8048708 <__errno_location@plt>
 8049456:	83 38 04             	cmpl   $0x4,(%eax)
 8049459:	74 15                	je     8049470 <rio_readlineb+0x60>
 804945b:	90                   	nop
 804945c:	8d 74 26 00          	lea    0x0(%esi,%eiz,1),%esi
 8049460:	e9 a6 00 00 00       	jmp    804950b <rio_readlineb+0xfb>
 8049465:	85 c0                	test   %eax,%eax
 8049467:	0f 84 a5 00 00 00    	je     8049512 <rio_readlineb+0x102>
 804946d:	89 7b 08             	mov    %edi,0x8(%ebx)
 8049470:	8b 73 04             	mov    0x4(%ebx),%esi
 8049473:	85 f6                	test   %esi,%esi
 8049475:	7e bd                	jle    8049434 <rio_readlineb+0x24>
 8049477:	85 f6                	test   %esi,%esi
 8049479:	0f 85 9c 00 00 00    	jne    804951b <rio_readlineb+0x10b>
 804947f:	8b 43 08             	mov    0x8(%ebx),%eax
 8049482:	89 44 24 1c          	mov    %eax,0x1c(%esp)
 8049486:	8d 44 24 2f          	lea    0x2f(%esp),%eax
 804948a:	89 74 24 08          	mov    %esi,0x8(%esp)
 804948e:	8b 54 24 1c          	mov    0x1c(%esp),%edx
 8049492:	89 54 24 04          	mov    %edx,0x4(%esp)
 8049496:	89 04 24             	mov    %eax,(%esp)
 8049499:	e8 6a f3 ff ff       	call   8048808 <memcpy@plt>
 804949e:	8b 44 24 1c          	mov    0x1c(%esp),%eax
 80494a2:	01 f0                	add    %esi,%eax
 80494a4:	89 43 08             	mov    %eax,0x8(%ebx)
 80494a7:	c7 43 04 00 00 00 00 	movl   $0x0,0x4(%ebx)
 80494ae:	83 fe 01             	cmp    $0x1,%esi
 80494b1:	75 18                	jne    80494cb <rio_readlineb+0xbb>
 80494b3:	0f b6 44 24 2f       	movzbl 0x2f(%esp),%eax
 80494b8:	8b 54 24 14          	mov    0x14(%esp),%edx
 80494bc:	88 02                	mov    %al,(%edx)
 80494be:	83 c2 01             	add    $0x1,%edx
 80494c1:	89 54 24 14          	mov    %edx,0x14(%esp)
 80494c5:	3c 0a                	cmp    $0xa,%al
 80494c7:	75 0f                	jne    80494d8 <rio_readlineb+0xc8>
 80494c9:	eb 21                	jmp    80494ec <rio_readlineb+0xdc>
 80494cb:	89 e8                	mov    %ebp,%eax
 80494cd:	85 f6                	test   %esi,%esi
 80494cf:	75 24                	jne    80494f5 <rio_readlineb+0xe5>
 80494d1:	83 f8 01             	cmp    $0x1,%eax
 80494d4:	75 16                	jne    80494ec <rio_readlineb+0xdc>
 80494d6:	eb 24                	jmp    80494fc <rio_readlineb+0xec>
 80494d8:	83 c5 01             	add    $0x1,%ebp
 80494db:	3b 6c 24 18          	cmp    0x18(%esp),%ebp
 80494df:	75 8f                	jne    8049470 <rio_readlineb+0x60>
 80494e1:	eb 09                	jmp    80494ec <rio_readlineb+0xdc>
 80494e3:	89 54 24 14          	mov    %edx,0x14(%esp)
 80494e7:	bd 01 00 00 00       	mov    $0x1,%ebp
 80494ec:	8b 44 24 14          	mov    0x14(%esp),%eax
 80494f0:	c6 00 00             	movb   $0x0,(%eax)
 80494f3:	eb 0c                	jmp    8049501 <rio_readlineb+0xf1>
 80494f5:	bd ff ff ff ff       	mov    $0xffffffff,%ebp
 80494fa:	eb 05                	jmp    8049501 <rio_readlineb+0xf1>
 80494fc:	bd 00 00 00 00       	mov    $0x0,%ebp
 8049501:	89 e8                	mov    %ebp,%eax
 8049503:	83 c4 3c             	add    $0x3c,%esp
 8049506:	5b                   	pop    %ebx
 8049507:	5e                   	pop    %esi
 8049508:	5f                   	pop    %edi
 8049509:	5d                   	pop    %ebp
 804950a:	c3                   	ret    
 804950b:	be ff ff ff ff       	mov    $0xffffffff,%esi
 8049510:	eb 05                	jmp    8049517 <rio_readlineb+0x107>
 8049512:	be 00 00 00 00       	mov    $0x0,%esi
 8049517:	89 e8                	mov    %ebp,%eax
 8049519:	eb b2                	jmp    80494cd <rio_readlineb+0xbd>
 804951b:	8b 43 08             	mov    0x8(%ebx),%eax
 804951e:	0f b6 10             	movzbl (%eax),%edx
 8049521:	88 54 24 2f          	mov    %dl,0x2f(%esp)
 8049525:	83 c0 01             	add    $0x1,%eax
 8049528:	89 43 08             	mov    %eax,0x8(%ebx)
 804952b:	83 ee 01             	sub    $0x1,%esi
 804952e:	89 73 04             	mov    %esi,0x4(%ebx)
 8049531:	eb 80                	jmp    80494b3 <rio_readlineb+0xa3>

08049533 <sigalrm_handler>:
 8049533:	83 ec 1c             	sub    $0x1c,%esp
 8049536:	c7 44 24 08 00 00 00 	movl   $0x0,0x8(%esp)
 804953d:	00 
 804953e:	c7 44 24 04 78 a8 04 	movl   $0x804a878,0x4(%esp)
 8049545:	08 
 8049546:	a1 a0 b8 04 08       	mov    0x804b8a0,%eax
 804954b:	89 04 24             	mov    %eax,(%esp)
 804954e:	e8 25 f3 ff ff       	call   8048878 <fprintf@plt>
 8049553:	c7 04 24 01 00 00 00 	movl   $0x1,(%esp)
 804955a:	e8 69 f3 ff ff       	call   80488c8 <exit@plt>

0804955f <submitr>:
 804955f:	55                   	push   %ebp
 8049560:	57                   	push   %edi
 8049561:	56                   	push   %esi
 8049562:	53                   	push   %ebx
 8049563:	81 ec 6c a0 00 00    	sub    $0xa06c,%esp
 8049569:	8b ac 24 94 a0 00 00 	mov    0xa094(%esp),%ebp
 8049570:	c7 84 24 40 20 00 00 	movl   $0x0,0x2040(%esp)
 8049577:	00 00 00 00 
 804957b:	c7 44 24 08 00 00 00 	movl   $0x0,0x8(%esp)
 8049582:	00 
 8049583:	c7 44 24 04 01 00 00 	movl   $0x1,0x4(%esp)
 804958a:	00 
 804958b:	c7 04 24 02 00 00 00 	movl   $0x2,(%esp)
 8049592:	e8 41 f2 ff ff       	call   80487d8 <socket@plt>
 8049597:	89 44 24 28          	mov    %eax,0x28(%esp)
 804959b:	85 c0                	test   %eax,%eax
 804959d:	79 55                	jns    80495f4 <submitr+0x95>
 804959f:	8b 84 24 98 a0 00 00 	mov    0xa098(%esp),%eax
 80495a6:	c7 00 45 72 72 6f    	movl   $0x6f727245,(%eax)
 80495ac:	c7 40 04 72 3a 20 43 	movl   $0x43203a72,0x4(%eax)
 80495b3:	c7 40 08 6c 69 65 6e 	movl   $0x6e65696c,0x8(%eax)
 80495ba:	c7 40 0c 74 20 75 6e 	movl   $0x6e752074,0xc(%eax)
 80495c1:	c7 40 10 61 62 6c 65 	movl   $0x656c6261,0x10(%eax)
 80495c8:	c7 40 14 20 74 6f 20 	movl   $0x206f7420,0x14(%eax)
 80495cf:	c7 40 18 63 72 65 61 	movl   $0x61657263,0x18(%eax)
 80495d6:	c7 40 1c 74 65 20 73 	movl   $0x73206574,0x1c(%eax)
 80495dd:	c7 40 20 6f 63 6b 65 	movl   $0x656b636f,0x20(%eax)
 80495e4:	66 c7 40 24 74 00    	movw   $0x74,0x24(%eax)
 80495ea:	b8 ff ff ff ff       	mov    $0xffffffff,%eax
 80495ef:	e9 fd 06 00 00       	jmp    8049cf1 <submitr+0x792>
 80495f4:	8b 84 24 80 a0 00 00 	mov    0xa080(%esp),%eax
 80495fb:	89 04 24             	mov    %eax,(%esp)
 80495fe:	e8 b5 f2 ff ff       	call   80488b8 <gethostbyname@plt>
 8049603:	85 c0                	test   %eax,%eax
 8049605:	75 73                	jne    804967a <submitr+0x11b>
 8049607:	8b 94 24 98 a0 00 00 	mov    0xa098(%esp),%edx
 804960e:	c7 02 45 72 72 6f    	movl   $0x6f727245,(%edx)
 8049614:	c7 42 04 72 3a 20 44 	movl   $0x44203a72,0x4(%edx)
 804961b:	c7 42 08 4e 53 20 69 	movl   $0x6920534e,0x8(%edx)
 8049622:	c7 42 0c 73 20 75 6e 	movl   $0x6e752073,0xc(%edx)
 8049629:	c7 42 10 61 62 6c 65 	movl   $0x656c6261,0x10(%edx)
 8049630:	c7 42 14 20 74 6f 20 	movl   $0x206f7420,0x14(%edx)
 8049637:	c7 42 18 72 65 73 6f 	movl   $0x6f736572,0x18(%edx)
 804963e:	c7 42 1c 6c 76 65 20 	movl   $0x2065766c,0x1c(%edx)
 8049645:	c7 42 20 73 65 72 76 	movl   $0x76726573,0x20(%edx)
 804964c:	c7 42 24 65 72 20 61 	movl   $0x61207265,0x24(%edx)
 8049653:	c7 42 28 64 64 72 65 	movl   $0x65726464,0x28(%edx)
 804965a:	66 c7 42 2c 73 73    	movw   $0x7373,0x2c(%edx)
 8049660:	c6 42 2e 00          	movb   $0x0,0x2e(%edx)
 8049664:	8b 44 24 28          	mov    0x28(%esp),%eax
 8049668:	89 04 24             	mov    %eax,(%esp)
 804966b:	e8 f8 f1 ff ff       	call   8048868 <close@plt>
 8049670:	b8 ff ff ff ff       	mov    $0xffffffff,%eax
 8049675:	e9 77 06 00 00       	jmp    8049cf1 <submitr+0x792>
 804967a:	8d 9c 24 50 a0 00 00 	lea    0xa050(%esp),%ebx
 8049681:	c7 84 24 50 a0 00 00 	movl   $0x0,0xa050(%esp)
 8049688:	00 00 00 00 
 804968c:	c7 84 24 54 a0 00 00 	movl   $0x0,0xa054(%esp)
 8049693:	00 00 00 00 
 8049697:	c7 84 24 58 a0 00 00 	movl   $0x0,0xa058(%esp)
 804969e:	00 00 00 00 
 80496a2:	c7 84 24 5c a0 00 00 	movl   $0x0,0xa05c(%esp)
 80496a9:	00 00 00 00 
 80496ad:	66 c7 84 24 50 a0 00 	movw   $0x2,0xa050(%esp)
 80496b4:	00 02 00 
 80496b7:	8b 50 0c             	mov    0xc(%eax),%edx
 80496ba:	89 54 24 08          	mov    %edx,0x8(%esp)
 80496be:	8d 94 24 54 a0 00 00 	lea    0xa054(%esp),%edx
 80496c5:	89 54 24 04          	mov    %edx,0x4(%esp)
 80496c9:	8b 40 10             	mov    0x10(%eax),%eax
 80496cc:	8b 00                	mov    (%eax),%eax
 80496ce:	89 04 24             	mov    %eax,(%esp)
 80496d1:	e8 22 f1 ff ff       	call   80487f8 <bcopy@plt>
 80496d6:	0f b7 84 24 84 a0 00 	movzwl 0xa084(%esp),%eax
 80496dd:	00 
 80496de:	66 c1 c8 08          	ror    $0x8,%ax
 80496e2:	66 89 84 24 52 a0 00 	mov    %ax,0xa052(%esp)
 80496e9:	00 
 80496ea:	c7 44 24 08 10 00 00 	movl   $0x10,0x8(%esp)
 80496f1:	00 
 80496f2:	89 5c 24 04          	mov    %ebx,0x4(%esp)
 80496f6:	8b 44 24 28          	mov    0x28(%esp),%eax
 80496fa:	89 04 24             	mov    %eax,(%esp)
 80496fd:	e8 26 f0 ff ff       	call   8048728 <connect@plt>
 8049702:	85 c0                	test   %eax,%eax
 8049704:	79 65                	jns    804976b <submitr+0x20c>
 8049706:	8b 94 24 98 a0 00 00 	mov    0xa098(%esp),%edx
 804970d:	c7 02 45 72 72 6f    	movl   $0x6f727245,(%edx)
 8049713:	c7 42 04 72 3a 20 55 	movl   $0x55203a72,0x4(%edx)
 804971a:	c7 42 08 6e 61 62 6c 	movl   $0x6c62616e,0x8(%edx)
 8049721:	c7 42 0c 65 20 74 6f 	movl   $0x6f742065,0xc(%edx)
 8049728:	c7 42 10 20 63 6f 6e 	movl   $0x6e6f6320,0x10(%edx)
 804972f:	c7 42 14 6e 65 63 74 	movl   $0x7463656e,0x14(%edx)
 8049736:	c7 42 18 20 74 6f 20 	movl   $0x206f7420,0x18(%edx)
 804973d:	c7 42 1c 74 68 65 20 	movl   $0x20656874,0x1c(%edx)
 8049744:	c7 42 20 73 65 72 76 	movl   $0x76726573,0x20(%edx)
 804974b:	66 c7 42 24 65 72    	movw   $0x7265,0x24(%edx)
 8049751:	c6 42 26 00          	movb   $0x0,0x26(%edx)
 8049755:	8b 44 24 28          	mov    0x28(%esp),%eax
 8049759:	89 04 24             	mov    %eax,(%esp)
 804975c:	e8 07 f1 ff ff       	call   8048868 <close@plt>
 8049761:	b8 ff ff ff ff       	mov    $0xffffffff,%eax
 8049766:	e9 86 05 00 00       	jmp    8049cf1 <submitr+0x792>
 804976b:	ba ff ff ff ff       	mov    $0xffffffff,%edx
 8049770:	89 ef                	mov    %ebp,%edi
 8049772:	b8 00 00 00 00       	mov    $0x0,%eax
 8049777:	89 d1                	mov    %edx,%ecx
 8049779:	f2 ae                	repnz scas %es:(%edi),%al
 804977b:	89 cb                	mov    %ecx,%ebx
 804977d:	f7 d3                	not    %ebx
 804977f:	8b bc 24 88 a0 00 00 	mov    0xa088(%esp),%edi
 8049786:	89 d1                	mov    %edx,%ecx
 8049788:	f2 ae                	repnz scas %es:(%edi),%al
 804978a:	89 4c 24 2c          	mov    %ecx,0x2c(%esp)
 804978e:	8b bc 24 8c a0 00 00 	mov    0xa08c(%esp),%edi
 8049795:	89 d1                	mov    %edx,%ecx
 8049797:	f2 ae                	repnz scas %es:(%edi),%al
 8049799:	89 ce                	mov    %ecx,%esi
 804979b:	f7 d6                	not    %esi
 804979d:	8b bc 24 90 a0 00 00 	mov    0xa090(%esp),%edi
 80497a4:	89 d1                	mov    %edx,%ecx
 80497a6:	f2 ae                	repnz scas %es:(%edi),%al
 80497a8:	2b 74 24 2c          	sub    0x2c(%esp),%esi
 80497ac:	29 ce                	sub    %ecx,%esi
 80497ae:	8d 44 5b fd          	lea    -0x3(%ebx,%ebx,2),%eax
 80497b2:	8d 44 06 7b          	lea    0x7b(%esi,%eax,1),%eax
 80497b6:	3d 00 20 00 00       	cmp    $0x2000,%eax
 80497bb:	76 7e                	jbe    804983b <submitr+0x2dc>
 80497bd:	8b 84 24 98 a0 00 00 	mov    0xa098(%esp),%eax
 80497c4:	c7 00 45 72 72 6f    	movl   $0x6f727245,(%eax)
 80497ca:	c7 40 04 72 3a 20 52 	movl   $0x52203a72,0x4(%eax)
 80497d1:	c7 40 08 65 73 75 6c 	movl   $0x6c757365,0x8(%eax)
 80497d8:	c7 40 0c 74 20 73 74 	movl   $0x74732074,0xc(%eax)
 80497df:	c7 40 10 72 69 6e 67 	movl   $0x676e6972,0x10(%eax)
 80497e6:	c7 40 14 20 74 6f 6f 	movl   $0x6f6f7420,0x14(%eax)
 80497ed:	c7 40 18 20 6c 61 72 	movl   $0x72616c20,0x18(%eax)
 80497f4:	c7 40 1c 67 65 2e 20 	movl   $0x202e6567,0x1c(%eax)
 80497fb:	c7 40 20 49 6e 63 72 	movl   $0x72636e49,0x20(%eax)
 8049802:	c7 40 24 65 61 73 65 	movl   $0x65736165,0x24(%eax)
 8049809:	c7 40 28 20 53 55 42 	movl   $0x42555320,0x28(%eax)
 8049810:	c7 40 2c 4d 49 54 52 	movl   $0x5254494d,0x2c(%eax)
 8049817:	c7 40 30 5f 4d 41 58 	movl   $0x58414d5f,0x30(%eax)
 804981e:	c7 40 34 42 55 46 00 	movl   $0x465542,0x34(%eax)
 8049825:	8b 44 24 28          	mov    0x28(%esp),%eax
 8049829:	89 04 24             	mov    %eax,(%esp)
 804982c:	e8 37 f0 ff ff       	call   8048868 <close@plt>
 8049831:	b8 ff ff ff ff       	mov    $0xffffffff,%eax
 8049836:	e9 b6 04 00 00       	jmp    8049cf1 <submitr+0x792>
 804983b:	8d 94 24 44 40 00 00 	lea    0x4044(%esp),%edx
 8049842:	b9 00 08 00 00       	mov    $0x800,%ecx
 8049847:	b8 00 00 00 00       	mov    $0x0,%eax
 804984c:	89 d7                	mov    %edx,%edi
 804984e:	f3 ab                	rep stos %eax,%es:(%edi)
 8049850:	89 ef                	mov    %ebp,%edi
 8049852:	b9 ff ff ff ff       	mov    $0xffffffff,%ecx
 8049857:	f2 ae                	repnz scas %es:(%edi),%al
 8049859:	f7 d1                	not    %ecx
 804985b:	89 ce                	mov    %ecx,%esi
 804985d:	83 ee 01             	sub    $0x1,%esi
 8049860:	0f 84 96 04 00 00    	je     8049cfc <submitr+0x79d>
 8049866:	89 d3                	mov    %edx,%ebx
 8049868:	0f b6 45 00          	movzbl 0x0(%ebp),%eax
 804986c:	3c 2a                	cmp    $0x2a,%al
 804986e:	74 24                	je     8049894 <submitr+0x335>
 8049870:	3c 2d                	cmp    $0x2d,%al
 8049872:	74 20                	je     8049894 <submitr+0x335>
 8049874:	3c 2e                	cmp    $0x2e,%al
 8049876:	74 1c                	je     8049894 <submitr+0x335>
 8049878:	3c 5f                	cmp    $0x5f,%al
 804987a:	74 18                	je     8049894 <submitr+0x335>
 804987c:	8d 50 d0             	lea    -0x30(%eax),%edx
 804987f:	80 fa 09             	cmp    $0x9,%dl
 8049882:	76 10                	jbe    8049894 <submitr+0x335>
 8049884:	8d 50 bf             	lea    -0x41(%eax),%edx
 8049887:	80 fa 19             	cmp    $0x19,%dl
 804988a:	76 08                	jbe    8049894 <submitr+0x335>
 804988c:	8d 50 9f             	lea    -0x61(%eax),%edx
 804988f:	80 fa 19             	cmp    $0x19,%dl
 8049892:	77 07                	ja     804989b <submitr+0x33c>
 8049894:	88 03                	mov    %al,(%ebx)
 8049896:	83 c3 01             	add    $0x1,%ebx
 8049899:	eb 4d                	jmp    80498e8 <submitr+0x389>
 804989b:	3c 20                	cmp    $0x20,%al
 804989d:	75 08                	jne    80498a7 <submitr+0x348>
 804989f:	c6 03 2b             	movb   $0x2b,(%ebx)
 80498a2:	83 c3 01             	add    $0x1,%ebx
 80498a5:	eb 41                	jmp    80498e8 <submitr+0x389>
 80498a7:	8d 50 e0             	lea    -0x20(%eax),%edx
 80498aa:	80 fa 5f             	cmp    $0x5f,%dl
 80498ad:	76 04                	jbe    80498b3 <submitr+0x354>
 80498af:	3c 09                	cmp    $0x9,%al
 80498b1:	75 46                	jne    80498f9 <submitr+0x39a>
 80498b3:	0f b6 c0             	movzbl %al,%eax
 80498b6:	89 44 24 08          	mov    %eax,0x8(%esp)
 80498ba:	c7 44 24 04 84 a9 04 	movl   $0x804a984,0x4(%esp)
 80498c1:	08 
 80498c2:	8d 54 24 38          	lea    0x38(%esp),%edx
 80498c6:	89 14 24             	mov    %edx,(%esp)
 80498c9:	e8 4a ee ff ff       	call   8048718 <sprintf@plt>
 80498ce:	0f b6 44 24 38       	movzbl 0x38(%esp),%eax
 80498d3:	88 03                	mov    %al,(%ebx)
 80498d5:	0f b6 44 24 39       	movzbl 0x39(%esp),%eax
 80498da:	88 43 01             	mov    %al,0x1(%ebx)
 80498dd:	0f b6 44 24 3a       	movzbl 0x3a(%esp),%eax
 80498e2:	88 43 02             	mov    %al,0x2(%ebx)
 80498e5:	83 c3 03             	add    $0x3,%ebx
 80498e8:	83 c5 01             	add    $0x1,%ebp
 80498eb:	83 ee 01             	sub    $0x1,%esi
 80498ee:	0f 85 74 ff ff ff    	jne    8049868 <submitr+0x309>
 80498f4:	e9 03 04 00 00       	jmp    8049cfc <submitr+0x79d>
 80498f9:	8b bc 24 98 a0 00 00 	mov    0xa098(%esp),%edi
 8049900:	be 9c a8 04 08       	mov    $0x804a89c,%esi
 8049905:	b8 43 00 00 00       	mov    $0x43,%eax
 804990a:	f7 c7 01 00 00 00    	test   $0x1,%edi
 8049910:	74 1d                	je     804992f <submitr+0x3d0>
 8049912:	0f b6 05 9c a8 04 08 	movzbl 0x804a89c,%eax
 8049919:	88 07                	mov    %al,(%edi)
 804991b:	8b bc 24 98 a0 00 00 	mov    0xa098(%esp),%edi
 8049922:	83 c7 01             	add    $0x1,%edi
 8049925:	be 9d a8 04 08       	mov    $0x804a89d,%esi
 804992a:	b8 42 00 00 00       	mov    $0x42,%eax
 804992f:	f7 c7 02 00 00 00    	test   $0x2,%edi
 8049935:	74 0f                	je     8049946 <submitr+0x3e7>
 8049937:	0f b7 16             	movzwl (%esi),%edx
 804993a:	66 89 17             	mov    %dx,(%edi)
 804993d:	83 c7 02             	add    $0x2,%edi
 8049940:	83 c6 02             	add    $0x2,%esi
 8049943:	83 e8 02             	sub    $0x2,%eax
 8049946:	89 c1                	mov    %eax,%ecx
 8049948:	c1 e9 02             	shr    $0x2,%ecx
 804994b:	f3 a5                	rep movsl %ds:(%esi),%es:(%edi)
 804994d:	ba 00 00 00 00       	mov    $0x0,%edx
 8049952:	a8 02                	test   $0x2,%al
 8049954:	74 0b                	je     8049961 <submitr+0x402>
 8049956:	0f b7 16             	movzwl (%esi),%edx
 8049959:	66 89 17             	mov    %dx,(%edi)
 804995c:	ba 02 00 00 00       	mov    $0x2,%edx
 8049961:	a8 01                	test   $0x1,%al
 8049963:	74 07                	je     804996c <submitr+0x40d>
 8049965:	0f b6 04 16          	movzbl (%esi,%edx,1),%eax
 8049969:	88 04 17             	mov    %al,(%edi,%edx,1)
 804996c:	8b 44 24 28          	mov    0x28(%esp),%eax
 8049970:	89 04 24             	mov    %eax,(%esp)
 8049973:	e8 f0 ee ff ff       	call   8048868 <close@plt>
 8049978:	b8 ff ff ff ff       	mov    $0xffffffff,%eax
 804997d:	e9 6f 03 00 00       	jmp    8049cf1 <submitr+0x792>
 8049982:	89 fd                	mov    %edi,%ebp
 8049984:	8b 7c 24 28          	mov    0x28(%esp),%edi
 8049988:	89 5c 24 08          	mov    %ebx,0x8(%esp)
 804998c:	89 74 24 04          	mov    %esi,0x4(%esp)
 8049990:	89 3c 24             	mov    %edi,(%esp)
 8049993:	e8 e0 ed ff ff       	call   8048778 <write@plt>
 8049998:	85 c0                	test   %eax,%eax
 804999a:	7f 0f                	jg     80499ab <submitr+0x44c>
 804999c:	e8 67 ed ff ff       	call   8048708 <__errno_location@plt>
 80499a1:	83 38 04             	cmpl   $0x4,(%eax)
 80499a4:	75 0f                	jne    80499b5 <submitr+0x456>
 80499a6:	b8 00 00 00 00       	mov    $0x0,%eax
 80499ab:	01 c6                	add    %eax,%esi
 80499ad:	29 c3                	sub    %eax,%ebx
 80499af:	75 d7                	jne    8049988 <submitr+0x429>
 80499b1:	85 ed                	test   %ebp,%ebp
 80499b3:	79 69                	jns    8049a1e <submitr+0x4bf>
 80499b5:	8b 94 24 98 a0 00 00 	mov    0xa098(%esp),%edx
 80499bc:	c7 02 45 72 72 6f    	movl   $0x6f727245,(%edx)
 80499c2:	c7 42 04 72 3a 20 43 	movl   $0x43203a72,0x4(%edx)
 80499c9:	c7 42 08 6c 69 65 6e 	movl   $0x6e65696c,0x8(%edx)
 80499d0:	c7 42 0c 74 20 75 6e 	movl   $0x6e752074,0xc(%edx)
 80499d7:	c7 42 10 61 62 6c 65 	movl   $0x656c6261,0x10(%edx)
 80499de:	c7 42 14 20 74 6f 20 	movl   $0x206f7420,0x14(%edx)
 80499e5:	c7 42 18 77 72 69 74 	movl   $0x74697277,0x18(%edx)
 80499ec:	c7 42 1c 65 20 74 6f 	movl   $0x6f742065,0x1c(%edx)
 80499f3:	c7 42 20 20 74 68 65 	movl   $0x65687420,0x20(%edx)
 80499fa:	c7 42 24 20 73 65 72 	movl   $0x72657320,0x24(%edx)
 8049a01:	c7 42 28 76 65 72 00 	movl   $0x726576,0x28(%edx)
 8049a08:	8b 44 24 28          	mov    0x28(%esp),%eax
 8049a0c:	89 04 24             	mov    %eax,(%esp)
 8049a0f:	e8 54 ee ff ff       	call   8048868 <close@plt>
 8049a14:	b8 ff ff ff ff       	mov    $0xffffffff,%eax
 8049a19:	e9 d3 02 00 00       	jmp    8049cf1 <submitr+0x792>
 8049a1e:	8b 44 24 28          	mov    0x28(%esp),%eax
 8049a22:	89 84 24 44 80 00 00 	mov    %eax,0x8044(%esp)
 8049a29:	c7 84 24 48 80 00 00 	movl   $0x0,0x8048(%esp)
 8049a30:	00 00 00 00 
 8049a34:	8d 84 24 50 80 00 00 	lea    0x8050(%esp),%eax
 8049a3b:	89 84 24 4c 80 00 00 	mov    %eax,0x804c(%esp)
 8049a42:	b9 00 20 00 00       	mov    $0x2000,%ecx
 8049a47:	8d 94 24 44 60 00 00 	lea    0x6044(%esp),%edx
 8049a4e:	8d 84 24 44 80 00 00 	lea    0x8044(%esp),%eax
 8049a55:	e8 b6 f9 ff ff       	call   8049410 <rio_readlineb>
 8049a5a:	85 c0                	test   %eax,%eax
 8049a5c:	7f 7d                	jg     8049adb <submitr+0x57c>
 8049a5e:	8b 94 24 98 a0 00 00 	mov    0xa098(%esp),%edx
 8049a65:	c7 02 45 72 72 6f    	movl   $0x6f727245,(%edx)
 8049a6b:	c7 42 04 72 3a 20 43 	movl   $0x43203a72,0x4(%edx)
 8049a72:	c7 42 08 6c 69 65 6e 	movl   $0x6e65696c,0x8(%edx)
 8049a79:	c7 42 0c 74 20 75 6e 	movl   $0x6e752074,0xc(%edx)
 8049a80:	c7 42 10 61 62 6c 65 	movl   $0x656c6261,0x10(%edx)
 8049a87:	c7 42 14 20 74 6f 20 	movl   $0x206f7420,0x14(%edx)
 8049a8e:	c7 42 18 72 65 61 64 	movl   $0x64616572,0x18(%edx)
 8049a95:	c7 42 1c 20 66 69 72 	movl   $0x72696620,0x1c(%edx)
 8049a9c:	c7 42 20 73 74 20 68 	movl   $0x68207473,0x20(%edx)
 8049aa3:	c7 42 24 65 61 64 65 	movl   $0x65646165,0x24(%edx)
 8049aaa:	c7 42 28 72 20 66 72 	movl   $0x72662072,0x28(%edx)
 8049ab1:	c7 42 2c 6f 6d 20 73 	movl   $0x73206d6f,0x2c(%edx)
 8049ab8:	c7 42 30 65 72 76 65 	movl   $0x65767265,0x30(%edx)
 8049abf:	66 c7 42 34 72 00    	movw   $0x72,0x34(%edx)
 8049ac5:	8b 44 24 28          	mov    0x28(%esp),%eax
 8049ac9:	89 04 24             	mov    %eax,(%esp)
 8049acc:	e8 97 ed ff ff       	call   8048868 <close@plt>
 8049ad1:	b8 ff ff ff ff       	mov    $0xffffffff,%eax
 8049ad6:	e9 16 02 00 00       	jmp    8049cf1 <submitr+0x792>
 8049adb:	8d 44 24 40          	lea    0x40(%esp),%eax
 8049adf:	89 44 24 10          	mov    %eax,0x10(%esp)
 8049ae3:	8d 84 24 40 20 00 00 	lea    0x2040(%esp),%eax
 8049aea:	89 44 24 0c          	mov    %eax,0xc(%esp)
 8049aee:	8d 84 24 44 20 00 00 	lea    0x2044(%esp),%eax
 8049af5:	89 44 24 08          	mov    %eax,0x8(%esp)
 8049af9:	c7 44 24 04 8b a9 04 	movl   $0x804a98b,0x4(%esp)
 8049b00:	08 
 8049b01:	8d 84 24 44 60 00 00 	lea    0x6044(%esp),%eax
 8049b08:	89 04 24             	mov    %eax,(%esp)
 8049b0b:	e8 48 ec ff ff       	call   8048758 <__isoc99_sscanf@plt>
 8049b10:	8b 84 24 40 20 00 00 	mov    0x2040(%esp),%eax
 8049b17:	3d c8 00 00 00       	cmp    $0xc8,%eax
 8049b1c:	0f 84 c9 00 00 00    	je     8049beb <submitr+0x68c>
 8049b22:	8d 54 24 40          	lea    0x40(%esp),%edx
 8049b26:	89 54 24 0c          	mov    %edx,0xc(%esp)
 8049b2a:	89 44 24 08          	mov    %eax,0x8(%esp)
 8049b2e:	c7 44 24 04 e0 a8 04 	movl   $0x804a8e0,0x4(%esp)
 8049b35:	08 
 8049b36:	8b 94 24 98 a0 00 00 	mov    0xa098(%esp),%edx
 8049b3d:	89 14 24             	mov    %edx,(%esp)
 8049b40:	e8 d3 eb ff ff       	call   8048718 <sprintf@plt>
 8049b45:	8b 44 24 28          	mov    0x28(%esp),%eax
 8049b49:	89 04 24             	mov    %eax,(%esp)
 8049b4c:	e8 17 ed ff ff       	call   8048868 <close@plt>
 8049b51:	b8 ff ff ff ff       	mov    $0xffffffff,%eax
 8049b56:	e9 96 01 00 00       	jmp    8049cf1 <submitr+0x792>
 8049b5b:	b9 00 20 00 00       	mov    $0x2000,%ecx
 8049b60:	8d 94 24 44 60 00 00 	lea    0x6044(%esp),%edx
 8049b67:	8d 84 24 44 80 00 00 	lea    0x8044(%esp),%eax
 8049b6e:	e8 9d f8 ff ff       	call   8049410 <rio_readlineb>
 8049b73:	85 c0                	test   %eax,%eax
 8049b75:	7f 74                	jg     8049beb <submitr+0x68c>
 8049b77:	8b 94 24 98 a0 00 00 	mov    0xa098(%esp),%edx
 8049b7e:	c7 02 45 72 72 6f    	movl   $0x6f727245,(%edx)
 8049b84:	c7 42 04 72 3a 20 43 	movl   $0x43203a72,0x4(%edx)
 8049b8b:	c7 42 08 6c 69 65 6e 	movl   $0x6e65696c,0x8(%edx)
 8049b92:	c7 42 0c 74 20 75 6e 	movl   $0x6e752074,0xc(%edx)
 8049b99:	c7 42 10 61 62 6c 65 	movl   $0x656c6261,0x10(%edx)
 8049ba0:	c7 42 14 20 74 6f 20 	movl   $0x206f7420,0x14(%edx)
 8049ba7:	c7 42 18 72 65 61 64 	movl   $0x64616572,0x18(%edx)
 8049bae:	c7 42 1c 20 68 65 61 	movl   $0x61656820,0x1c(%edx)
 8049bb5:	c7 42 20 64 65 72 73 	movl   $0x73726564,0x20(%edx)
 8049bbc:	c7 42 24 20 66 72 6f 	movl   $0x6f726620,0x24(%edx)
 8049bc3:	c7 42 28 6d 20 73 65 	movl   $0x6573206d,0x28(%edx)
 8049bca:	c7 42 2c 72 76 65 72 	movl   $0x72657672,0x2c(%edx)
 8049bd1:	c6 42 30 00          	movb   $0x0,0x30(%edx)
 8049bd5:	8b 44 24 28          	mov    0x28(%esp),%eax
 8049bd9:	89 04 24             	mov    %eax,(%esp)
 8049bdc:	e8 87 ec ff ff       	call   8048868 <close@plt>
 8049be1:	b8 ff ff ff ff       	mov    $0xffffffff,%eax
 8049be6:	e9 06 01 00 00       	jmp    8049cf1 <submitr+0x792>
 8049beb:	80 bc 24 44 60 00 00 	cmpb   $0xd,0x6044(%esp)
 8049bf2:	0d 
 8049bf3:	0f 85 62 ff ff ff    	jne    8049b5b <submitr+0x5fc>
 8049bf9:	80 bc 24 45 60 00 00 	cmpb   $0xa,0x6045(%esp)
 8049c00:	0a 
 8049c01:	0f 85 54 ff ff ff    	jne    8049b5b <submitr+0x5fc>
 8049c07:	80 bc 24 46 60 00 00 	cmpb   $0x0,0x6046(%esp)
 8049c0e:	00 
 8049c0f:	0f 85 46 ff ff ff    	jne    8049b5b <submitr+0x5fc>
 8049c15:	b9 00 20 00 00       	mov    $0x2000,%ecx
 8049c1a:	8d 94 24 44 60 00 00 	lea    0x6044(%esp),%edx
 8049c21:	8d 84 24 44 80 00 00 	lea    0x8044(%esp),%eax
 8049c28:	e8 e3 f7 ff ff       	call   8049410 <rio_readlineb>
 8049c2d:	85 c0                	test   %eax,%eax
 8049c2f:	7f 7b                	jg     8049cac <submitr+0x74d>
 8049c31:	8b 94 24 98 a0 00 00 	mov    0xa098(%esp),%edx
 8049c38:	c7 02 45 72 72 6f    	movl   $0x6f727245,(%edx)
 8049c3e:	c7 42 04 72 3a 20 43 	movl   $0x43203a72,0x4(%edx)
 8049c45:	c7 42 08 6c 69 65 6e 	movl   $0x6e65696c,0x8(%edx)
 8049c4c:	c7 42 0c 74 20 75 6e 	movl   $0x6e752074,0xc(%edx)
 8049c53:	c7 42 10 61 62 6c 65 	movl   $0x656c6261,0x10(%edx)
 8049c5a:	c7 42 14 20 74 6f 20 	movl   $0x206f7420,0x14(%edx)
 8049c61:	c7 42 18 72 65 61 64 	movl   $0x64616572,0x18(%edx)
 8049c68:	c7 42 1c 20 73 74 61 	movl   $0x61747320,0x1c(%edx)
 8049c6f:	c7 42 20 74 75 73 20 	movl   $0x20737574,0x20(%edx)
 8049c76:	c7 42 24 6d 65 73 73 	movl   $0x7373656d,0x24(%edx)
 8049c7d:	c7 42 28 61 67 65 20 	movl   $0x20656761,0x28(%edx)
 8049c84:	c7 42 2c 66 72 6f 6d 	movl   $0x6d6f7266,0x2c(%edx)
 8049c8b:	c7 42 30 20 73 65 72 	movl   $0x72657320,0x30(%edx)
 8049c92:	c7 42 34 76 65 72 00 	movl   $0x726576,0x34(%edx)
 8049c99:	8b 44 24 28          	mov    0x28(%esp),%eax
 8049c9d:	89 04 24             	mov    %eax,(%esp)
 8049ca0:	e8 c3 eb ff ff       	call   8048868 <close@plt>
 8049ca5:	b8 ff ff ff ff       	mov    $0xffffffff,%eax
 8049caa:	eb 45                	jmp    8049cf1 <submitr+0x792>
 8049cac:	8d 84 24 44 60 00 00 	lea    0x6044(%esp),%eax
 8049cb3:	89 44 24 04          	mov    %eax,0x4(%esp)
 8049cb7:	8b 94 24 98 a0 00 00 	mov    0xa098(%esp),%edx
 8049cbe:	89 14 24             	mov    %edx,(%esp)
 8049cc1:	e8 72 eb ff ff       	call   8048838 <strcpy@plt>
 8049cc6:	8b 44 24 28          	mov    0x28(%esp),%eax
 8049cca:	89 04 24             	mov    %eax,(%esp)
 8049ccd:	e8 96 eb ff ff       	call   8048868 <close@plt>
 8049cd2:	b8 ff ff ff ff       	mov    $0xffffffff,%eax
 8049cd7:	8b 94 24 98 a0 00 00 	mov    0xa098(%esp),%edx
 8049cde:	80 3a 4f             	cmpb   $0x4f,(%edx)
 8049ce1:	75 0e                	jne    8049cf1 <submitr+0x792>
 8049ce3:	80 7a 01 4b          	cmpb   $0x4b,0x1(%edx)
 8049ce7:	75 08                	jne    8049cf1 <submitr+0x792>
 8049ce9:	80 7a 02 01          	cmpb   $0x1,0x2(%edx)
 8049ced:	19 c0                	sbb    %eax,%eax
 8049cef:	f7 d0                	not    %eax
 8049cf1:	81 c4 6c a0 00 00    	add    $0xa06c,%esp
 8049cf7:	5b                   	pop    %ebx
 8049cf8:	5e                   	pop    %esi
 8049cf9:	5f                   	pop    %edi
 8049cfa:	5d                   	pop    %ebp
 8049cfb:	c3                   	ret    
 8049cfc:	8d 84 24 44 40 00 00 	lea    0x4044(%esp),%eax
 8049d03:	89 44 24 14          	mov    %eax,0x14(%esp)
 8049d07:	8b 8c 24 90 a0 00 00 	mov    0xa090(%esp),%ecx
 8049d0e:	89 4c 24 10          	mov    %ecx,0x10(%esp)
 8049d12:	8b 84 24 8c a0 00 00 	mov    0xa08c(%esp),%eax
 8049d19:	89 44 24 0c          	mov    %eax,0xc(%esp)
 8049d1d:	8b 94 24 88 a0 00 00 	mov    0xa088(%esp),%edx
 8049d24:	89 54 24 08          	mov    %edx,0x8(%esp)
 8049d28:	c7 44 24 04 10 a9 04 	movl   $0x804a910,0x4(%esp)
 8049d2f:	08 
 8049d30:	8d bc 24 44 60 00 00 	lea    0x6044(%esp),%edi
 8049d37:	89 3c 24             	mov    %edi,(%esp)
 8049d3a:	e8 d9 e9 ff ff       	call   8048718 <sprintf@plt>
 8049d3f:	b8 00 00 00 00       	mov    $0x0,%eax
 8049d44:	b9 ff ff ff ff       	mov    $0xffffffff,%ecx
 8049d49:	f2 ae                	repnz scas %es:(%edi),%al
 8049d4b:	f7 d1                	not    %ecx
 8049d4d:	8d 79 ff             	lea    -0x1(%ecx),%edi
 8049d50:	89 fb                	mov    %edi,%ebx
 8049d52:	8d b4 24 44 60 00 00 	lea    0x6044(%esp),%esi
 8049d59:	85 ff                	test   %edi,%edi
 8049d5b:	0f 85 21 fc ff ff    	jne    8049982 <submitr+0x423>
 8049d61:	e9 b8 fc ff ff       	jmp    8049a1e <submitr+0x4bf>

08049d66 <init_timeout>:
 8049d66:	53                   	push   %ebx
 8049d67:	83 ec 18             	sub    $0x18,%esp
 8049d6a:	8b 5c 24 20          	mov    0x20(%esp),%ebx
 8049d6e:	85 db                	test   %ebx,%ebx
 8049d70:	74 26                	je     8049d98 <init_timeout+0x32>
 8049d72:	c7 44 24 04 33 95 04 	movl   $0x8049533,0x4(%esp)
 8049d79:	08 
 8049d7a:	c7 04 24 0e 00 00 00 	movl   $0xe,(%esp)
 8049d81:	e8 b2 e9 ff ff       	call   8048738 <signal@plt>
 8049d86:	85 db                	test   %ebx,%ebx
 8049d88:	b8 00 00 00 00       	mov    $0x0,%eax
 8049d8d:	0f 48 d8             	cmovs  %eax,%ebx
 8049d90:	89 1c 24             	mov    %ebx,(%esp)
 8049d93:	e8 90 ea ff ff       	call   8048828 <alarm@plt>
 8049d98:	83 c4 18             	add    $0x18,%esp
 8049d9b:	5b                   	pop    %ebx
 8049d9c:	c3                   	ret    

08049d9d <init_driver>:
 8049d9d:	57                   	push   %edi
 8049d9e:	56                   	push   %esi
 8049d9f:	53                   	push   %ebx
 8049da0:	83 ec 20             	sub    $0x20,%esp
 8049da3:	8b 74 24 30          	mov    0x30(%esp),%esi
 8049da7:	c7 44 24 04 01 00 00 	movl   $0x1,0x4(%esp)
 8049dae:	00 
 8049daf:	c7 04 24 0d 00 00 00 	movl   $0xd,(%esp)
 8049db6:	e8 7d e9 ff ff       	call   8048738 <signal@plt>
 8049dbb:	c7 44 24 04 01 00 00 	movl   $0x1,0x4(%esp)
 8049dc2:	00 
 8049dc3:	c7 04 24 1d 00 00 00 	movl   $0x1d,(%esp)
 8049dca:	e8 69 e9 ff ff       	call   8048738 <signal@plt>
 8049dcf:	c7 44 24 04 01 00 00 	movl   $0x1,0x4(%esp)
 8049dd6:	00 
 8049dd7:	c7 04 24 1d 00 00 00 	movl   $0x1d,(%esp)
 8049dde:	e8 55 e9 ff ff       	call   8048738 <signal@plt>
 8049de3:	c7 44 24 08 00 00 00 	movl   $0x0,0x8(%esp)
 8049dea:	00 
 8049deb:	c7 44 24 04 01 00 00 	movl   $0x1,0x4(%esp)
 8049df2:	00 
 8049df3:	c7 04 24 02 00 00 00 	movl   $0x2,(%esp)
 8049dfa:	e8 d9 e9 ff ff       	call   80487d8 <socket@plt>
 8049dff:	89 c3                	mov    %eax,%ebx
 8049e01:	85 c0                	test   %eax,%eax
 8049e03:	79 4e                	jns    8049e53 <init_driver+0xb6>
 8049e05:	c7 06 45 72 72 6f    	movl   $0x6f727245,(%esi)
 8049e0b:	c7 46 04 72 3a 20 43 	movl   $0x43203a72,0x4(%esi)
 8049e12:	c7 46 08 6c 69 65 6e 	movl   $0x6e65696c,0x8(%esi)
 8049e19:	c7 46 0c 74 20 75 6e 	movl   $0x6e752074,0xc(%esi)
 8049e20:	c7 46 10 61 62 6c 65 	movl   $0x656c6261,0x10(%esi)
 8049e27:	c7 46 14 20 74 6f 20 	movl   $0x206f7420,0x14(%esi)
 8049e2e:	c7 46 18 63 72 65 61 	movl   $0x61657263,0x18(%esi)
 8049e35:	c7 46 1c 74 65 20 73 	movl   $0x73206574,0x1c(%esi)
 8049e3c:	c7 46 20 6f 63 6b 65 	movl   $0x656b636f,0x20(%esi)
 8049e43:	66 c7 46 24 74 00    	movw   $0x74,0x24(%esi)
 8049e49:	b8 ff ff ff ff       	mov    $0xffffffff,%eax
 8049e4e:	e9 1b 01 00 00       	jmp    8049f6e <init_driver+0x1d1>
 8049e53:	c7 04 24 8b a5 04 08 	movl   $0x804a58b,(%esp)
 8049e5a:	e8 59 ea ff ff       	call   80488b8 <gethostbyname@plt>
 8049e5f:	85 c0                	test   %eax,%eax
 8049e61:	75 68                	jne    8049ecb <init_driver+0x12e>
 8049e63:	c7 06 45 72 72 6f    	movl   $0x6f727245,(%esi)
 8049e69:	c7 46 04 72 3a 20 44 	movl   $0x44203a72,0x4(%esi)
 8049e70:	c7 46 08 4e 53 20 69 	movl   $0x6920534e,0x8(%esi)
 8049e77:	c7 46 0c 73 20 75 6e 	movl   $0x6e752073,0xc(%esi)
 8049e7e:	c7 46 10 61 62 6c 65 	movl   $0x656c6261,0x10(%esi)
 8049e85:	c7 46 14 20 74 6f 20 	movl   $0x206f7420,0x14(%esi)
 8049e8c:	c7 46 18 72 65 73 6f 	movl   $0x6f736572,0x18(%esi)
 8049e93:	c7 46 1c 6c 76 65 20 	movl   $0x2065766c,0x1c(%esi)
 8049e9a:	c7 46 20 73 65 72 76 	movl   $0x76726573,0x20(%esi)
 8049ea1:	c7 46 24 65 72 20 61 	movl   $0x61207265,0x24(%esi)
 8049ea8:	c7 46 28 64 64 72 65 	movl   $0x65726464,0x28(%esi)
 8049eaf:	66 c7 46 2c 73 73    	movw   $0x7373,0x2c(%esi)
 8049eb5:	c6 46 2e 00          	movb   $0x0,0x2e(%esi)
 8049eb9:	89 1c 24             	mov    %ebx,(%esp)
 8049ebc:	e8 a7 e9 ff ff       	call   8048868 <close@plt>
 8049ec1:	b8 ff ff ff ff       	mov    $0xffffffff,%eax
 8049ec6:	e9 a3 00 00 00       	jmp    8049f6e <init_driver+0x1d1>
 8049ecb:	8d 7c 24 10          	lea    0x10(%esp),%edi
 8049ecf:	c7 44 24 10 00 00 00 	movl   $0x0,0x10(%esp)
 8049ed6:	00 
 8049ed7:	c7 44 24 14 00 00 00 	movl   $0x0,0x14(%esp)
 8049ede:	00 
 8049edf:	c7 44 24 18 00 00 00 	movl   $0x0,0x18(%esp)
 8049ee6:	00 
 8049ee7:	c7 44 24 1c 00 00 00 	movl   $0x0,0x1c(%esp)
 8049eee:	00 
 8049eef:	66 c7 44 24 10 02 00 	movw   $0x2,0x10(%esp)
 8049ef6:	8b 50 0c             	mov    0xc(%eax),%edx
 8049ef9:	89 54 24 08          	mov    %edx,0x8(%esp)
 8049efd:	8d 54 24 14          	lea    0x14(%esp),%edx
 8049f01:	89 54 24 04          	mov    %edx,0x4(%esp)
 8049f05:	8b 40 10             	mov    0x10(%eax),%eax
 8049f08:	8b 00                	mov    (%eax),%eax
 8049f0a:	89 04 24             	mov    %eax,(%esp)
 8049f0d:	e8 e6 e8 ff ff       	call   80487f8 <bcopy@plt>
 8049f12:	66 c7 44 24 12 3b 6e 	movw   $0x6e3b,0x12(%esp)
 8049f19:	c7 44 24 08 10 00 00 	movl   $0x10,0x8(%esp)
 8049f20:	00 
 8049f21:	89 7c 24 04          	mov    %edi,0x4(%esp)
 8049f25:	89 1c 24             	mov    %ebx,(%esp)
 8049f28:	e8 fb e7 ff ff       	call   8048728 <connect@plt>
 8049f2d:	85 c0                	test   %eax,%eax
 8049f2f:	79 27                	jns    8049f58 <init_driver+0x1bb>
 8049f31:	c7 44 24 08 8b a5 04 	movl   $0x804a58b,0x8(%esp)
 8049f38:	08 
 8049f39:	c7 44 24 04 5c a9 04 	movl   $0x804a95c,0x4(%esp)
 8049f40:	08 
 8049f41:	89 34 24             	mov    %esi,(%esp)
 8049f44:	e8 cf e7 ff ff       	call   8048718 <sprintf@plt>
 8049f49:	89 1c 24             	mov    %ebx,(%esp)
 8049f4c:	e8 17 e9 ff ff       	call   8048868 <close@plt>
 8049f51:	b8 ff ff ff ff       	mov    $0xffffffff,%eax
 8049f56:	eb 16                	jmp    8049f6e <init_driver+0x1d1>
 8049f58:	89 1c 24             	mov    %ebx,(%esp)
 8049f5b:	e8 08 e9 ff ff       	call   8048868 <close@plt>
 8049f60:	66 c7 06 4f 4b       	movw   $0x4b4f,(%esi)
 8049f65:	c6 46 02 00          	movb   $0x0,0x2(%esi)
 8049f69:	b8 00 00 00 00       	mov    $0x0,%eax
 8049f6e:	83 c4 20             	add    $0x20,%esp
 8049f71:	5b                   	pop    %ebx
 8049f72:	5e                   	pop    %esi
 8049f73:	5f                   	pop    %edi
 8049f74:	c3                   	ret    

08049f75 <driver_post>:
 8049f75:	53                   	push   %ebx
 8049f76:	83 ec 28             	sub    $0x28,%esp
 8049f79:	8b 44 24 30          	mov    0x30(%esp),%eax
 8049f7d:	8b 54 24 34          	mov    0x34(%esp),%edx
 8049f81:	8b 5c 24 3c          	mov    0x3c(%esp),%ebx
 8049f85:	83 7c 24 38 00       	cmpl   $0x0,0x38(%esp)
 8049f8a:	74 20                	je     8049fac <driver_post+0x37>
 8049f8c:	89 54 24 04          	mov    %edx,0x4(%esp)
 8049f90:	c7 04 24 9c a9 04 08 	movl   $0x804a99c,(%esp)
 8049f97:	e8 ac e8 ff ff       	call   8048848 <printf@plt>
 8049f9c:	66 c7 03 4f 4b       	movw   $0x4b4f,(%ebx)
 8049fa1:	c6 43 02 00          	movb   $0x0,0x2(%ebx)
 8049fa5:	b8 00 00 00 00       	mov    $0x0,%eax
 8049faa:	eb 49                	jmp    8049ff5 <driver_post+0x80>
 8049fac:	85 c0                	test   %eax,%eax
 8049fae:	74 37                	je     8049fe7 <driver_post+0x72>
 8049fb0:	80 38 00             	cmpb   $0x0,(%eax)
 8049fb3:	74 32                	je     8049fe7 <driver_post+0x72>
 8049fb5:	89 5c 24 18          	mov    %ebx,0x18(%esp)
 8049fb9:	89 54 24 14          	mov    %edx,0x14(%esp)
 8049fbd:	c7 44 24 10 b3 a9 04 	movl   $0x804a9b3,0x10(%esp)
 8049fc4:	08 
 8049fc5:	89 44 24 0c          	mov    %eax,0xc(%esp)
 8049fc9:	c7 44 24 08 bb a9 04 	movl   $0x804a9bb,0x8(%esp)
 8049fd0:	08 
 8049fd1:	c7 44 24 04 6e 3b 00 	movl   $0x3b6e,0x4(%esp)
 8049fd8:	00 
 8049fd9:	c7 04 24 8b a5 04 08 	movl   $0x804a58b,(%esp)
 8049fe0:	e8 7a f5 ff ff       	call   804955f <submitr>
 8049fe5:	eb 0e                	jmp    8049ff5 <driver_post+0x80>
 8049fe7:	66 c7 03 4f 4b       	movw   $0x4b4f,(%ebx)
 8049fec:	c6 43 02 00          	movb   $0x0,0x2(%ebx)
 8049ff0:	b8 00 00 00 00       	mov    $0x0,%eax
 8049ff5:	83 c4 28             	add    $0x28,%esp
 8049ff8:	5b                   	pop    %ebx
 8049ff9:	c3                   	ret    
 8049ffa:	90                   	nop
 8049ffb:	90                   	nop
 8049ffc:	90                   	nop
 8049ffd:	90                   	nop
 8049ffe:	90                   	nop
 8049fff:	90                   	nop

0804a000 <__libc_csu_init>:
 804a000:	55                   	push   %ebp
 804a001:	57                   	push   %edi
 804a002:	56                   	push   %esi
 804a003:	53                   	push   %ebx
 804a004:	e8 69 00 00 00       	call   804a072 <__i686.get_pc_thunk.bx>
 804a009:	81 c3 d7 10 00 00    	add    $0x10d7,%ebx
 804a00f:	83 ec 1c             	sub    $0x1c,%esp
 804a012:	8b 6c 24 30          	mov    0x30(%esp),%ebp
 804a016:	8d bb 20 ff ff ff    	lea    -0xe0(%ebx),%edi
 804a01c:	e8 a7 e6 ff ff       	call   80486c8 <_init>
 804a021:	8d 83 20 ff ff ff    	lea    -0xe0(%ebx),%eax
 804a027:	29 c7                	sub    %eax,%edi
 804a029:	c1 ff 02             	sar    $0x2,%edi
 804a02c:	85 ff                	test   %edi,%edi
 804a02e:	74 29                	je     804a059 <__libc_csu_init+0x59>
 804a030:	31 f6                	xor    %esi,%esi
 804a032:	8d b6 00 00 00 00    	lea    0x0(%esi),%esi
 804a038:	8b 44 24 38          	mov    0x38(%esp),%eax
 804a03c:	89 2c 24             	mov    %ebp,(%esp)
 804a03f:	89 44 24 08          	mov    %eax,0x8(%esp)
 804a043:	8b 44 24 34          	mov    0x34(%esp),%eax
 804a047:	89 44 24 04          	mov    %eax,0x4(%esp)
 804a04b:	ff 94 b3 20 ff ff ff 	call   *-0xe0(%ebx,%esi,4)
 804a052:	83 c6 01             	add    $0x1,%esi
 804a055:	39 fe                	cmp    %edi,%esi
 804a057:	75 df                	jne    804a038 <__libc_csu_init+0x38>
 804a059:	83 c4 1c             	add    $0x1c,%esp
 804a05c:	5b                   	pop    %ebx
 804a05d:	5e                   	pop    %esi
 804a05e:	5f                   	pop    %edi
 804a05f:	5d                   	pop    %ebp
 804a060:	c3                   	ret    
 804a061:	eb 0d                	jmp    804a070 <__libc_csu_fini>
 804a063:	90                   	nop
 804a064:	90                   	nop
 804a065:	90                   	nop
 804a066:	90                   	nop
 804a067:	90                   	nop
 804a068:	90                   	nop
 804a069:	90                   	nop
 804a06a:	90                   	nop
 804a06b:	90                   	nop
 804a06c:	90                   	nop
 804a06d:	90                   	nop
 804a06e:	90                   	nop
 804a06f:	90                   	nop

0804a070 <__libc_csu_fini>:
 804a070:	f3 c3                	repz ret 

0804a072 <__i686.get_pc_thunk.bx>:
 804a072:	8b 1c 24             	mov    (%esp),%ebx
 804a075:	c3                   	ret    
 804a076:	90                   	nop
 804a077:	90                   	nop
 804a078:	90                   	nop
 804a079:	90                   	nop
 804a07a:	90                   	nop
 804a07b:	90                   	nop
 804a07c:	90                   	nop
 804a07d:	90                   	nop
 804a07e:	90                   	nop
 804a07f:	90                   	nop

0804a080 <__do_global_ctors_aux>:
 804a080:	55                   	push   %ebp
 804a081:	89 e5                	mov    %esp,%ebp
 804a083:	53                   	push   %ebx
 804a084:	8d 64 24 fc          	lea    -0x4(%esp),%esp
 804a088:	a1 00 b0 04 08       	mov    0x804b000,%eax
 804a08d:	83 f8 ff             	cmp    $0xffffffff,%eax
 804a090:	74 12                	je     804a0a4 <__do_global_ctors_aux+0x24>
 804a092:	bb 00 b0 04 08       	mov    $0x804b000,%ebx
 804a097:	90                   	nop
 804a098:	8d 5b fc             	lea    -0x4(%ebx),%ebx
 804a09b:	ff d0                	call   *%eax
 804a09d:	8b 03                	mov    (%ebx),%eax
 804a09f:	83 f8 ff             	cmp    $0xffffffff,%eax
 804a0a2:	75 f4                	jne    804a098 <__do_global_ctors_aux+0x18>
 804a0a4:	8d 64 24 04          	lea    0x4(%esp),%esp
 804a0a8:	5b                   	pop    %ebx
 804a0a9:	5d                   	pop    %ebp
 804a0aa:	c3                   	ret    
 804a0ab:	90                   	nop

Disassembly of section .fini:

0804a0ac <_fini>:
 804a0ac:	53                   	push   %ebx
 804a0ad:	83 ec 08             	sub    $0x8,%esp
 804a0b0:	e8 00 00 00 00       	call   804a0b5 <_fini+0x9>
 804a0b5:	5b                   	pop    %ebx
 804a0b6:	81 c3 2b 10 00 00    	add    $0x102b,%ebx
 804a0bc:	e8 4f e8 ff ff       	call   8048910 <__do_global_dtors_aux>
 804a0c1:	83 c4 08             	add    $0x8,%esp
 804a0c4:	5b                   	pop    %ebx
 804a0c5:	c3                   	ret    
